   1              		.file	"blowfish.c"
   2              		.text
   3              	.Ltext0:
   4              		.globl	_nettle_blowfish_initial_ctx
   5              		.section	.rodata
   6              		.align 32
   9              	_nettle_blowfish_initial_ctx:
  10 0000 A60B31D1 		.long	-785314906
  11 0004 ACB5DF98 		.long	-1730169428
  12 0008 DB72FD2F 		.long	805139163
  13 000c B7DF1AD0 		.long	-803545161
  14 0010 EDAFE1B8 		.long	-1193168915
  15 0014 967E266A 		.long	1780907670
  16 0018 45907CBA 		.long	-1166241723
  17 001c 997F2CF1 		.long	-248741991
  18 0020 4799A124 		.long	614570311
  19 0024 F76C91B3 		.long	-1282315017
  20 0028 E2F20108 		.long	134345442
  21 002c 16FC8E85 		.long	-2054226922
  22 0030 D8206963 		.long	1667834072
  23 0034 694E5771 		.long	1901547113
  24 0038 A3FE58A4 		.long	-1537671517
  25 003c 7E3D93F4 		.long	-191677058
  26 0040 8F74950D 		.long	227898511
  27 0044 58B68E72 		.long	1921955416
  28 0048 58CD8B71 		.long	1904987480
  29 004c EE4A1582 		.long	-2112533778
  30 0050 1DA4547B 		.long	2069144605
  31 0054 B5595AC2 		.long	-1034266187
  32 0058 39D5309C 		.long	-1674521287
  33 005c 1360F22A 		.long	720527379
  34 0060 23B0D1C5 		.long	-976113629
  35 0064 F0856028 		.long	677414384
  36 0068 187941CA 		.long	-901678824
  37 006c EF38DBB8 		.long	-1193592593
  38 0070 B0DC798E 		.long	-1904616272
  39 0074 0E183A60 		.long	1614419982
  40 0078 8B0E9E6C 		.long	1822297739
  41 007c 3E8A1EB0 		.long	-1340175810
  42 0080 C17715D7 		.long	-686458943
  43 0084 274B31BD 		.long	-1120842969
  44 0088 DA2FAF78 		.long	2024746970
  45 008c 605C6055 		.long	1432378464
  46 0090 F32555E6 		.long	-430627341
  47 0094 94AB55AA 		.long	-1437226092
  48 0098 62984857 		.long	1464375394
  49 009c 4014E863 		.long	1676153920
  50 00a0 6A39CA55 		.long	1439316330
  51 00a4 B610AB2A 		.long	715854006
  52 00a8 345CCCB4 		.long	-1261675468
  53 00ac CEE84111 		.long	289532110
  54 00b0 AF8654A1 		.long	-1588296017
  55 00b4 93E9727C 		.long	2087905683
  56 00b8 1114EEB3 		.long	-1276242927
  57 00bc 2ABC6F63 		.long	1668267050
  58 00c0 5DC5A92B 		.long	732546397
  59 00c4 F6311874 		.long	1947742710
  60 00c8 163E5CCE 		.long	-832815594
  61 00cc 1E93879B 		.long	-1685613794
  62 00d0 33BAD6AF 		.long	-1344882125
  63 00d4 5CCF246C 		.long	1814351708
  64 00d8 8153327A 		.long	2050118529
  65 00dc 77869528 		.long	680887927
  66 00e0 98488F3B 		.long	999245976
  67 00e4 AFB94B6B 		.long	1800124847
  68 00e8 1BE8BFC4 		.long	-994056165
  69 00ec 93212866 		.long	1713906067
  70 00f0 CC09D861 		.long	1641548236
  71 00f4 91A921FB 		.long	-81679983
  72 00f8 60AC7C48 		.long	1216130144
  73 00fc 3280EC5D 		.long	1575780402
  74 0100 5D5D84EF 		.long	-276538019
  75 0104 B17585E9 		.long	-377129551
  76 0108 022326DC 		.long	-601480446
  77 010c 881B65EB 		.long	-345695352
  78 0110 813E8923 		.long	596196993
  79 0114 C5AC96D3 		.long	-745100091
  80 0118 F36F6D0F 		.long	258830323
  81 011c 3942F483 		.long	-2081144263
  82 0120 82440B2E 		.long	772490370
  83 0124 042084A4 		.long	-1534844924
  84 0128 4AF0C869 		.long	1774776394
  85 012c 5E9B1F9E 		.long	-1642095778
  86 0130 4268C621 		.long	566650946
  87 0134 9A6CE9F6 		.long	-152474470
  88 0138 619C0C67 		.long	1728879713
  89 013c F088D3AB 		.long	-1412200208
  90 0140 D2A0516A 		.long	1783734482
  91 0144 682F54D8 		.long	-665571480
  92 0148 28A70F96 		.long	-1777359064
  93 014c A33351AB 		.long	-1420741725
  94 0150 6C0BEF6E 		.long	1861159788
  95 0154 E43B7A13 		.long	326777828
  96 0158 50F03BBA 		.long	-1170476976
  97 015c 982AFB7E 		.long	2130389656
  98 0160 1D65F1A1 		.long	-1578015459
  99 0164 7601AF39 		.long	967770486
 100 0168 3E59CA66 		.long	1724537150
 101 016c 880E4382 		.long	-2109534584
 102 0170 1986EE8C 		.long	-1930525159
 103 0174 B49F6F45 		.long	1164943284
 104 0178 C3A5847D 		.long	2105845187
 105 017c BE5E8B3B 		.long	998989502
 106 0180 D8756FE0 		.long	-529566248
 107 0184 7320C185 		.long	-2050940813
 108 0188 9F441A40 		.long	1075463327
 109 018c A66AC156 		.long	1455516326
 110 0190 62AAD34E 		.long	1322494562
 111 0194 06773F36 		.long	910128902
 112 0198 72DFFE1B 		.long	469688178
 113 019c 3D029B42 		.long	1117454909
 114 01a0 24D7D037 		.long	936433444
 115 01a4 48120AD0 		.long	-804646328
 116 01a8 D3EA0FDB 		.long	-619713837
 117 01ac 9BC0F149 		.long	1240580251
 118 01b0 C9725307 		.long	122909385
 119 01b4 7B1B9980 		.long	-2137449605
 120 01b8 D879D425 		.long	634681816
 121 01bc F7DEE8F6 		.long	-152510729
 122 01c0 1A50FEE3 		.long	-469872614
 123 01c4 3B4C79B6 		.long	-1233564613
 124 01c8 BDE06C97 		.long	-1754472259
 125 01cc BA06C004 		.long	79693498
 126 01d0 B64FA9C1 		.long	-1045868618
 127 01d4 C4609F40 		.long	1084186820
 128 01d8 C29E5C5E 		.long	1583128258
 129 01dc 63246A19 		.long	426386531
 130 01e0 AF6FFB68 		.long	1761308591
 131 01e4 B5536C3E 		.long	1047286709
 132 01e8 EBB23913 		.long	322548459
 133 01ec 6FEC523B 		.long	995290223
 134 01f0 1F51FC6D 		.long	1845252383
 135 01f4 2C95309B 		.long	-1691314900
 136 01f8 444581CC 		.long	-863943356
 137 01fc 09BD5EAF 		.long	-1352745719
 138 0200 04D0E3BE 		.long	-1092366332
 139 0204 FD4A33DE 		.long	-567063811
 140 0208 07280F66 		.long	1712269319
 141 020c B34B2E19 		.long	422464435
 142 0210 57A8CBC0 		.long	-1060394921
 143 0214 0F74C845 		.long	1170764815
 144 0218 395F0BD2 		.long	-771006663
 145 021c DBFBD3B9 		.long	-1177289765
 146 0220 BDC07955 		.long	1434042557
 147 0224 0A32601A 		.long	442511882
 148 0228 C600A1D6 		.long	-694091578
 149 022c 79722C40 		.long	1076654713
 150 0230 FE259F67 		.long	1738483198
 151 0234 CCA31FFB 		.long	-81812532
 152 0238 F8E9A58E 		.long	-1901729288
 153 023c F82232DB 		.long	-617471240
 154 0240 DF16753C 		.long	1014306527
 155 0244 156B61FD 		.long	-43947243
 156 0248 C81E502F 		.long	793779912
 157 024c AB5205AD 		.long	-1392160085
 158 0250 FAB53D32 		.long	842905082
 159 0254 608723FD 		.long	-48003232
 160 0258 487B3153 		.long	1395751752
 161 025c 82DF003E 		.long	1040244610
 162 0260 BB575C9E 		.long	-1638115397
 163 0264 A08C6FCA 		.long	-898659168
 164 0268 2E56871A 		.long	445077038
 165 026c DB6917DF 		.long	-552113701
 166 0270 F6A842D5 		.long	-717051658
 167 0274 C3FF7E28 		.long	679411651
 168 0278 C63267AC 		.long	-1402522938
 169 027c 73554F8C 		.long	-1940957837
 170 0280 B0275B69 		.long	1767581616
 171 0284 C858CABB 		.long	-1144366904
 172 0288 5DA3FFE1 		.long	-503340195
 173 028c A011F0B8 		.long	-1192226400
 174 0290 983DFA10 		.long	284835224
 175 0294 B88321FD 		.long	-48135240
 176 0298 6CB5FC4A 		.long	1258075500
 177 029c 5BD3D12D 		.long	768725851
 178 02a0 79E4539A 		.long	-1705778055
 179 02a4 6545F8B6 		.long	-1225243291
 180 02a8 BC498ED2 		.long	-762426948
 181 02ac 9097FB4B 		.long	1274779536
 182 02b0 DAF2DDE1 		.long	-505548070
 183 02b4 337ECBA4 		.long	-1530167757
 184 02b8 4113FB62 		.long	1660621633
 185 02bc E8C6E4CE 		.long	-823867672
 186 02c0 DACA20EF 		.long	-283063590
 187 02c4 014C7736 		.long	913787905
 188 02c8 FE9E7ED0 		.long	-797008130
 189 02cc B41FF12B 		.long	737222580
 190 02d0 4DDADB95 		.long	-1780753843
 191 02d4 989190AE 		.long	-1366257256
 192 02d8 718EADEA 		.long	-357724559
 193 02dc A0D5936B 		.long	1804850592
 194 02e0 D0D18ED0 		.long	-795946544
 195 02e4 E025C7AF 		.long	-1345903136
 196 02e8 2F5B3C8E 		.long	-1908647121
 197 02ec B794758E 		.long	-1904896841
 198 02f0 FBE2F68F 		.long	-1879645445
 199 02f4 642B12F2 		.long	-233690268
 200 02f8 12B88888 		.long	-2004305902
 201 02fc 1CF00D90 		.long	-1878134756
 202 0300 A05EAD4F 		.long	1336762016
 203 0304 1CC38F68 		.long	1754252060
 204 0308 91F1CFD1 		.long	-774901359
 205 030c ADC1A8B3 		.long	-1280786003
 206 0310 18222F2F 		.long	791618072
 207 0314 77170EBE 		.long	-1106372745
 208 0318 FE2D75EA 		.long	-361419266
 209 031c A11F028B 		.long	-1962795103
 210 0320 0FCCA0E5 		.long	-442446833
 211 0324 E8746FB5 		.long	-1250986776
 212 0328 D6F3AC18 		.long	413987798
 213 032c 99E289CE 		.long	-829824359
 214 0330 E04FA8B4 		.long	-1264037920
 215 0334 B7E013FD 		.long	-49028937
 216 0338 813BC47C 		.long	2093235073
 217 033c D9A8ADD2 		.long	-760370983
 218 0340 66A25F16 		.long	375366246
 219 0344 05779580 		.long	-2137688315
 220 0348 1473CC93 		.long	-1815317740
 221 034c 77141A21 		.long	555357303
 222 0350 6520ADE6 		.long	-424861595
 223 0354 86FAB577 		.long	2008414854
 224 0358 F54254C7 		.long	-950779147
 225 035c CF359DFB 		.long	-73583153
 226 0360 0CAFCDEB 		.long	-338841844
 227 0364 A0893E7B 		.long	2067696032
 228 0368 D31B41D6 		.long	-700376109
 229 036c 497E1EAE 		.long	-1373733303
 230 0370 2D0E2500 		.long	2428461
 231 0374 5EB37120 		.long	544322398
 232 0378 BB006822 		.long	577241275
 233 037c AFE0B857 		.long	1471733935
 234 0380 9B366424 		.long	610547355
 235 0384 1EB909F0 		.long	-267798242
 236 0388 1D916355 		.long	1432588573
 237 038c AAA6DF59 		.long	1507829418
 238 0390 8943C178 		.long	2025931657
 239 0394 7F535AD9 		.long	-648391809
 240 0398 A25B7D20 		.long	545086370
 241 039c C5B9E502 		.long	48609733
 242 03a0 76032683 		.long	-2094660746
 243 03a4 A9CF9562 		.long	1653985193
 244 03a8 6819C811 		.long	298326376
 245 03ac 414A734E 		.long	1316178497
 246 03b0 CA2D47B3 		.long	-1287180854
 247 03b4 4AA9147B 		.long	2064951626
 248 03b8 5200511B 		.long	458293330
 249 03bc 1529539A 		.long	-1705826027
 250 03c0 3F570FD6 		.long	-703637697
 251 03c4 E4C69BBC 		.long	-1130641692
 252 03c8 76A4602B 		.long	727753846
 253 03cc 0074E681 		.long	-2115603456
 254 03d0 B56FBA08 		.long	146436021
 255 03d4 1FE91B57 		.long	1461446943
 256 03d8 6BEC96F2 		.long	-224990101
 257 03dc 15D90D2A 		.long	705550613
 258 03e0 216563B6 		.long	-1235000031
 259 03e4 B6F9B9E7 		.long	-407242314
 260 03e8 2E0534FF 		.long	-13368018
 261 03ec 645685C5 		.long	-981117340
 262 03f0 5D2DB053 		.long	1404054877
 263 03f4 A18F9FA9 		.long	-1449160799
 264 03f8 9947BA08 		.long	146425753
 265 03fc 6A07856E 		.long	1854211946
 266 0400 E9707A4B 		.long	1266315497
 267 0404 4429B3B5 		.long	-1246549692
 268 0408 2E0975DB 		.long	-613086930
 269 040c 232619C4 		.long	-1004984797
 270 0410 B0A66EAD 		.long	-1385257296
 271 0414 7DDFA749 		.long	1235738493
 272 0418 B860EE9C 		.long	-1662099272
 273 041c 66B2ED8F 		.long	-1880247706
 274 0420 718CAAEC 		.long	-324367247
 275 0424 FF179A69 		.long	1771706367
 276 0428 6C526456 		.long	1449415276
 277 042c E19EB1C2 		.long	-1028546847
 278 0430 A5023619 		.long	422970021
 279 0434 294C0975 		.long	1963543593
 280 0438 401359A0 		.long	-1604775104
 281 043c 3E3A18E4 		.long	-468174274
 282 0440 9A98543F 		.long	1062508698
 283 0444 659D425B 		.long	1531092325
 284 0448 D6E48F6B 		.long	1804592342
 285 044c D63FF799 		.long	-1711849514
 286 0450 079CD2A1 		.long	-1580033017
 287 0454 F530E8EF 		.long	-269995787
 288 0458 E6382D4D 		.long	1294809318
 289 045c C15D25F0 		.long	-265986623
 290 0460 8620DD4C 		.long	1289560198
 291 0464 26EB7084 		.long	-2072974554
 292 0468 C6E98263 		.long	1669523910
 293 046c 5ECC1E02 		.long	35572830
 294 0470 3F6B6809 		.long	157838143
 295 0474 C9EFBA3E 		.long	1052438473
 296 0478 1418973C 		.long	1016535060
 297 047c A1706A6B 		.long	1802137761
 298 0480 84357F68 		.long	1753167236
 299 0484 86E2A052 		.long	1386275462
 300 0488 05539CB7 		.long	-1214491899
 301 048c 370750AA 		.long	-1437595849
 302 0490 1C84073E 		.long	1040679964
 303 0494 5CAEDE7F 		.long	2145300060
 304 0498 EC447D8E 		.long	-1904392980
 305 049c B8F21657 		.long	1461121720
 306 04a0 37DA3AB0 		.long	-1338320329
 307 04a4 0D0C50F0 		.long	-263189491
 308 04a8 041F1CF0 		.long	-266592508
 309 04ac FFB30002 		.long	33600511
 310 04b0 1AF50CAE 		.long	-1374882534
 311 04b4 B274B53C 		.long	1018524850
 312 04b8 587A8325 		.long	629373528
 313 04bc BD2109DC 		.long	-603381315
 314 04c0 F91391D1 		.long	-779021319
 315 04c4 F62FA97C 		.long	2091462646
 316 04c8 73473294 		.long	-1808644237
 317 04cc 0147F522 		.long	586499841
 318 04d0 81E5E53A 		.long	988145025
 319 04d4 DCDAC237 		.long	935516892
 320 04d8 3476B5C8 		.long	-927631820
 321 04dc A7DDF39A 		.long	-1695294041
 322 04e0 466144A9 		.long	-1455136442
 323 04e4 0E03D00F 		.long	265290510
 324 04e8 3EC7C8EC 		.long	-322386114
 325 04ec 411E75A4 		.long	-1535828415
 326 04f0 99CD38E2 		.long	-499593831
 327 04f4 2F0EEA3B 		.long	1005194799
 328 04f8 A1BB8032 		.long	847297441
 329 04fc 31B33E18 		.long	406762289
 330 0500 388B544E 		.long	1314163512
 331 0504 08B96D4F 		.long	1332590856
 332 0508 030D426F 		.long	1866599683
 333 050c BF040AF6 		.long	-167115585
 334 0510 9012B82C 		.long	750260880
 335 0514 797C9724 		.long	613907577
 336 0518 72B07956 		.long	1450815602
 337 051c AF89AFBC 		.long	-1129346641
 338 0520 1F779ADE 		.long	-560302305
 339 0524 100893D9 		.long	-644675568
 340 0528 12AE8BB3 		.long	-1282691566
 341 052c 2E3FCFDC 		.long	-590397650
 342 0530 1F721255 		.long	1427272223
 343 0534 24716B2E 		.long	778793252
 344 0538 E6DD1A50 		.long	1343938022
 345 053c 87CD849F 		.long	-1618686585
 346 0540 1847587A 		.long	2052605720
 347 0544 17DA0874 		.long	1946737175
 348 0548 BC9A9FBC 		.long	-1130390852
 349 054c 8C7D4BE9 		.long	-380928628
 350 0550 3AEC7AEC 		.long	-327488454
 351 0554 FA1D85DB 		.long	-612033030
 352 0558 66430963 		.long	1661551462
 353 055c D2C364C4 		.long	-1000029230
 354 0560 47181CEF 		.long	-283371449
 355 0564 08D91532 		.long	840292616
 356 0568 373B43DD 		.long	-582796489
 357 056c 16BAC224 		.long	616741398
 358 0570 434DA112 		.long	312560963
 359 0574 51C4652A 		.long	711312465
 360 0578 02009450 		.long	1351876610
 361 057c DDE43A13 		.long	322626781
 362 0580 9EF8DF71 		.long	1910503582
 363 0584 554E3110 		.long	271666773
 364 0588 D677AC81 		.long	-2119403562
 365 058c 9B19115F 		.long	1594956187
 366 0590 F1563504 		.long	70604529
 367 0594 6BC7A3D7 		.long	-677132437
 368 0598 3B18113C 		.long	1007753275
 369 059c 09A52459 		.long	1495573769
 370 05a0 EDE68FF2 		.long	-225450259
 371 05a4 FAFBF197 		.long	-1745748998
 372 05a8 2CBFBA9E 		.long	-1631928532
 373 05ac 6E3C151E 		.long	504708206
 374 05b0 7045E386 		.long	-2031925904
 375 05b4 B16FE9EA 		.long	-353800271
 376 05b8 0A5E0E86 		.long	-2045878774
 377 05bc B32A3E5A 		.long	1514023603
 378 05c0 1CE71F77 		.long	1998579484
 379 05c4 FA063D4E 		.long	1312622330
 380 05c8 B9DC6529 		.long	694541497
 381 05cc 0F1DE799 		.long	-1712906993
 382 05d0 D6893E80 		.long	-2143385130
 383 05d4 25C86652 		.long	1382467621
 384 05d8 78C94C2E 		.long	776784248
 385 05dc 6AB3109C 		.long	-1676627094
 386 05e0 BA0E15C6 		.long	-971698502
 387 05e4 78EAE294 		.long	-1797068168
 388 05e8 533CFCA5 		.long	-1510196141
 389 05ec F42D0A1E 		.long	503983604
 390 05f0 A74EF7F2 		.long	-218673497
 391 05f4 3D2B1D36 		.long	907881277
 392 05f8 0F263919 		.long	423175695
 393 05fc 6079C219 		.long	432175456
 394 0600 08A72352 		.long	1378068232
 395 0604 B61213F7 		.long	-149744970
 396 0608 6EFEADEB 		.long	-340918674
 397 060c 661FC3EA 		.long	-356311194
 398 0610 9545BCE3 		.long	-474200683
 399 0614 83C87BA6 		.long	-1501837181
 400 0618 D1377FB1 		.long	-1317062703
 401 061c 28FF8C01 		.long	26017576
 402 0620 EFDD32C3 		.long	-1020076561
 403 0624 A55A6CBE 		.long	-1100195163
 404 0628 85215865 		.long	1700274565
 405 062c 0298AB68 		.long	1756076034
 406 0630 0FA5CEEE 		.long	-288447217
 407 0634 3B952FDB 		.long	-617638597
 408 0638 AD7DEF2A 		.long	720338349
 409 063c 842F6E5B 		.long	1533947780
 410 0640 28B62115 		.long	354530856
 411 0644 70610729 		.long	688349552
 412 0648 7547DDEC 		.long	-321042571
 413 064c 10159F61 		.long	1637815568
 414 0650 30A8CC13 		.long	332179504
 415 0654 96BD61EB 		.long	-345916010
 416 0658 1EFE3403 		.long	53804574
 417 065c CF6303AA 		.long	-1442618417
 418 0660 905C73B5 		.long	-1250730864
 419 0664 39A2704C 		.long	1282449977
 420 0668 0B9E9ED5 		.long	-711025141
 421 066c 14DEAACB 		.long	-877994476
 422 0670 BC86CCEE 		.long	-288586052
 423 0674 A72C6260 		.long	1617046695
 424 0678 AB5CAB9C 		.long	-1666491221
 425 067c 6E84F3B2 		.long	-1292663698
 426 0680 AF1E8B64 		.long	1686838959
 427 0684 CAF0BD19 		.long	431878346
 428 0688 B96923A0 		.long	-1608291911
 429 068c 50BB5A65 		.long	1700445008
 430 0690 325A6840 		.long	1080580658
 431 0694 B3B42A3C 		.long	1009431731
 432 0698 D5E99E31 		.long	832498133
 433 069c F7B821C0 		.long	-1071531785
 434 06a0 190B549B 		.long	-1688990951
 435 06a4 99A05F87 		.long	-2023776103
 436 06a8 7E99F795 		.long	-1778935426
 437 06ac A87D3D62 		.long	1648197032
 438 06b0 9A8837F8 		.long	-130578278
 439 06b4 772DE397 		.long	-1746719369
 440 06b8 5F93ED11 		.long	300782431
 441 06bc 81126816 		.long	375919233
 442 06c0 2988350E 		.long	238389289
 443 06c4 D61FE6C7 		.long	-941219882
 444 06c8 A1DFDE96 		.long	-1763778655
 445 06cc 99BA5878 		.long	2019080857
 446 06d0 A584F557 		.long	1475708069
 447 06d4 6372221B 		.long	455242339
 448 06d8 FFC3839B 		.long	-1685863425
 449 06dc 9646C21A 		.long	448939670
 450 06e0 EB0AB3CD 		.long	-843904277
 451 06e4 54302E53 		.long	1395535956
 452 06e8 E448D98F 		.long	-1881585436
 453 06ec 2831BC6D 		.long	1841049896
 454 06f0 EFF2EB58 		.long	1491858159
 455 06f4 EAFFC634 		.long	885456874
 456 06f8 61ED28FE 		.long	-30872223
 457 06fc 733C7CEE 		.long	-293847949
 458 0700 D9144A5D 		.long	1565136089
 459 0704 E3B764E8 		.long	-396052509
 460 0708 145D1042 		.long	1108368660
 461 070c E0133E20 		.long	540939232
 462 0710 B6E2EE45 		.long	1173283510
 463 0714 EAABAAA3 		.long	-1549095958
 464 0718 154F6CDB 		.long	-613658859
 465 071c D04FCBFA 		.long	-87339056
 466 0720 42F442C7 		.long	-951913406
 467 0724 B5BB6AEF 		.long	-278217803
 468 0728 1D3B4F65 		.long	1699691293
 469 072c 0521CD41 		.long	1103962373
 470 0730 9E791ED8 		.long	-669091426
 471 0734 C74D8586 		.long	-2038084153
 472 0738 6A474BE4 		.long	-464828566
 473 073c 5062813D 		.long	1031889488
 474 0740 F2A162CF 		.long	-815619598
 475 0744 46268D5B 		.long	1535977030
 476 0748 A08388FC 		.long	-58162272
 477 074c A3B6C7C1 		.long	-1043876189
 478 0750 C324157F 		.long	2132092099
 479 0754 9274CB69 		.long	1774941330
 480 0758 0B8A8447 		.long	1199868427
 481 075c 85B29256 		.long	1452454533
 482 0760 00BF5B09 		.long	157007616
 483 0764 9D4819AD 		.long	-1390851939
 484 0768 74B16214 		.long	342012276
 485 076c 000E8223 		.long	595725824
 486 0770 2A8D4258 		.long	1480756522
 487 0774 EAF5550C 		.long	206960106
 488 0778 3EF4AD1D 		.long	497939518
 489 077c 61703F23 		.long	591360097
 490 0780 92F07233 		.long	863170706
 491 0784 417E938D 		.long	-1919713727
 492 0788 F1EC5FD6 		.long	-698356495
 493 078c DB3B226C 		.long	1814182875
 494 0790 5937DE7C 		.long	2094937945
 495 0794 6074EECB 		.long	-873565088
 496 0798 A7F28540 		.long	1082520231
 497 079c 6E3277CE 		.long	-831049106
 498 07a0 848007A6 		.long	-1509457788
 499 07a4 9E50F819 		.long	435703966
 500 07a8 55D8EFE8 		.long	-386934699
 501 07ac 3597D961 		.long	1641649973
 502 07b0 AAA769A9 		.long	-1452693590
 503 07b4 C2060CC5 		.long	-989067582
 504 07b8 FCAB045A 		.long	1510255612
 505 07bc DCCA0B80 		.long	-2146710820
 506 07c0 2E7A449E 		.long	-1639679442
 507 07c4 843445C3 		.long	-1018874748
 508 07c8 0567D5FD 		.long	-36346107
 509 07cc C99E1E0E 		.long	236887753
 510 07d0 D3DB73DB 		.long	-613164077
 511 07d4 CD885510 		.long	274041037
 512 07d8 79DA5F67 		.long	1734335097
 513 07dc 404367E3 		.long	-479771840
 514 07e0 6534C4C5 		.long	-976997275
 515 07e4 D8383E71 		.long	1899903192
 516 07e8 9EF8283D 		.long	1026095262
 517 07ec 20FF6DF1 		.long	-244449504
 518 07f0 E7213E15 		.long	356393447
 519 07f4 4A3DB08F 		.long	-1884275382
 520 07f8 2B9FE3E6 		.long	-421290197
 521 07fc F7AD83DB 		.long	-612127241
 522 0800 685A3DE9 		.long	-381855128
 523 0804 F7408194 		.long	-1803468553
 524 0808 1C264CF6 		.long	-162781668
 525 080c 34296994 		.long	-1805047500
 526 0810 F7201541 		.long	1091903735
 527 0814 F7D40276 		.long	1979897079
 528 0818 2E6BF4BC 		.long	-1124832466
 529 081c 6800A2D4 		.long	-727580568
 530 0820 712408D4 		.long	-737663887
 531 0824 6AF42033 		.long	857797738
 532 0828 B7D4B743 		.long	1136121015
 533 082c AF610050 		.long	1342202287
 534 0830 2EF6391E 		.long	507115054
 535 0834 46452497 		.long	-1759230650
 536 0838 744F2114 		.long	337727348
 537 083c 40888BBF 		.long	-1081374656
 538 0840 1DFC954D 		.long	1301675037
 539 0844 AF91B596 		.long	-1766485585
 540 0848 D3DDF470 		.long	1895095763
 541 084c 452FA066 		.long	1721773893
 542 0850 EC09BCBF 		.long	-1078195732
 543 0854 8597BD03 		.long	62756741
 544 0858 D06DAC7F 		.long	2142006736
 545 085c 0485CB31 		.long	835421444
 546 0860 B327EB96 		.long	-1762973773
 547 0864 4139FD55 		.long	1442658625
 548 0868 E64725DA 		.long	-635090970
 549 086c 9A0ACAAB 		.long	-1412822374
 550 0870 25785028 		.long	676362277
 551 0874 F4290453 		.long	1392781812
 552 0878 DA862C0A 		.long	170690266
 553 087c FB6DB6E9 		.long	-373920261
 554 0880 6214DC68 		.long	1759253602
 555 0884 006948D7 		.long	-683120384
 556 0888 A4C00E68 		.long	1745797284
 557 088c EE8DA127 		.long	664899054
 558 0890 A2FE3F4F 		.long	1329594018
 559 0894 8CAD87E8 		.long	-393761396
 560 0898 06E08CB5 		.long	-1249058810
 561 089c B6D6F47A 		.long	2062866102
 562 08a0 7C1ECEAA 		.long	-1429332356
 563 08a4 EC5F37D3 		.long	-751345684
 564 08a8 99A378CE 		.long	-830954599
 565 08ac 422A6B40 		.long	1080764994
 566 08b0 359EFE20 		.long	553557557
 567 08b4 B985F3D9 		.long	-638351943
 568 08b8 ABD739EE 		.long	-298199125
 569 08bc 8B4E123B 		.long	991055499
 570 08c0 F7FAC91D 		.long	499776247
 571 08c4 56186D4B 		.long	1265440854
 572 08c8 3166A326 		.long	648242737
 573 08cc B297E3EA 		.long	-354183246
 574 08d0 74FA6E3A 		.long	980351604
 575 08d4 32435BDD 		.long	-581221582
 576 08d8 F7E74168 		.long	1749149687
 577 08dc FB2078CA 		.long	-898096901
 578 08e0 4EF50AFB 		.long	-83167922
 579 08e4 97B3FED8 		.long	-654396521
 580 08e8 AC564045 		.long	1161844396
 581 08ec 279548BA 		.long	-1169648345
 582 08f0 3A3A5355 		.long	1431517754
 583 08f4 878D8320 		.long	545492359
 584 08f8 B7A96BFE 		.long	-26498633
 585 08fc 4B9596D0 		.long	-795437749
 586 0900 BC67A855 		.long	1437099964
 587 0904 589A15A1 		.long	-1592419752
 588 0908 6329A9CC 		.long	-861329053
 589 090c 33DBE199 		.long	-1713251533
 590 0910 564A2AA6 		.long	-1507177898
 591 0914 F925313F 		.long	1060185593
 592 0918 1C7EF45E 		.long	1593081372
 593 091c 7C312990 		.long	-1876348548
 594 0920 02E8F8FD 		.long	-34019326
 595 0924 702F2704 		.long	69676912
 596 0928 5C15BB80 		.long	-2135222948
 597 092c E32C2805 		.long	86519011
 598 0930 4815C195 		.long	-1782508216
 599 0934 226DC6E4 		.long	-456757982
 600 0938 3F13C148 		.long	1220612927
 601 093c DC860FC7 		.long	-955283748
 602 0940 EEC9F907 		.long	133810670
 603 0944 0F1F0441 		.long	1090789135
 604 0948 A4794740 		.long	1078426020
 605 094c 176E885D 		.long	1569222167
 606 0950 EB515F32 		.long	845107691
 607 0954 D1C09BD5 		.long	-711212847
 608 0958 8FC1BCF2 		.long	-222510705
 609 095c 64351141 		.long	1091646820
 610 0960 34787B25 		.long	628848692
 611 0964 609C2A60 		.long	1613405280
 612 0968 A3E8F8DF 		.long	-537335645
 613 096c 1B6C631F 		.long	526609435
 614 0970 C2B4120E 		.long	236106946
 615 0974 9E32E102 		.long	48312990
 616 0978 D14F66AF 		.long	-1352249391
 617 097c 1581D1CA 		.long	-892239595
 618 0980 E095236B 		.long	1797494240
 619 0984 E1923E33 		.long	859738849
 620 0988 620B243B 		.long	992217954
 621 098c 22B9BEEE 		.long	-289490654
 622 0990 0EA2B285 		.long	-2051890674
 623 0994 990DBAE6 		.long	-424014439
 624 0998 8C0C72DE 		.long	-562951028
 625 099c 28F7A22D 		.long	765654824
 626 09a0 457812D0 		.long	-804095931
 627 09a4 FD94B795 		.long	-1783130883
 628 09a8 62087D64 		.long	1685915746
 629 09ac F0F5CCE7 		.long	-405998096
 630 09b0 6FA34954 		.long	1414112111
 631 09b4 FA487D87 		.long	-2021832454
 632 09b8 27FD9DC3 		.long	-1013056217
 633 09bc 1E8D3EF3 		.long	-214004450
 634 09c0 4163470A 		.long	172450625
 635 09c4 74FF2E99 		.long	-1724973196
 636 09c8 AB6E6F3A 		.long	980381355
 637 09cc 37FDF8F4 		.long	-185008841
 638 09d0 60DC12A8 		.long	-1475158944
 639 09d4 F8DDEBA1 		.long	-1578377736
 640 09d8 4CE11B99 		.long	-1726226100
 641 09dc 0D6B6EDB 		.long	-613520627
 642 09e0 10557BC6 		.long	-964995824
 643 09e4 372C676D 		.long	1835478071
 644 09e8 3BD46527 		.long	660984891
 645 09ec 04E8D0DC 		.long	-590288892
 646 09f0 C70D29F1 		.long	-248967737
 647 09f4 A3FF00CC 		.long	-872349789
 648 09f8 920F39B5 		.long	-1254551662
 649 09fc 0BED0F69 		.long	1762651403
 650 0a00 FB9F7B66 		.long	1719377915
 651 0a04 9C7DDBCE 		.long	-824476260
 652 0a08 0BCF91A0 		.long	-1601057013
 653 0a0c A35E15D9 		.long	-652910941
 654 0a10 882F13BB 		.long	-1156370552
 655 0a14 24AD5B51 		.long	1364962596
 656 0a18 BF79947B 		.long	2073328063
 657 0a1c EBD63B76 		.long	1983633131
 658 0a20 B32E3937 		.long	926494387
 659 0a24 795911CC 		.long	-871278215
 660 0a28 97E22680 		.long	-2144935273
 661 0a2c 2D312EF4 		.long	-198299347
 662 0a30 A7AD4268 		.long	1749200295
 663 0a34 3B2B6AC6 		.long	-966120645
 664 0a38 CC4C7512 		.long	309677260
 665 0a3c 1CF12E78 		.long	2016342300
 666 0a40 3742126A 		.long	1779581495
 667 0a44 E75192B7 		.long	-1215147545
 668 0a48 E6BBA106 		.long	111262694
 669 0a4c 5063FB4B 		.long	1274766160
 670 0a50 18106B1A 		.long	443224088
 671 0a54 FAEDCA11 		.long	298511866
 672 0a58 D8BD253D 		.long	1025883608
 673 0a5c C9C3E1E2 		.long	-488520759
 674 0a60 59164244 		.long	1145181785
 675 0a64 8613120A 		.long	168956806
 676 0a68 6EEC0CD9 		.long	-653464466
 677 0a6c 2AEAABD5 		.long	-710153686
 678 0a70 4E67AF64 		.long	1689216846
 679 0a74 5FA886DA 		.long	-628709281
 680 0a78 88E9BFBE 		.long	-1094719096
 681 0a7c FEC3E464 		.long	1692713982
 682 0a80 5780BC9D 		.long	-1648590761
 683 0a84 86C0F7F0 		.long	-252198778
 684 0a88 F87B7860 		.long	1618508792
 685 0a8c 4D600360 		.long	1610833997
 686 0a90 4683FDD1 		.long	-771914938
 687 0a94 B01F38F6 		.long	-164094032
 688 0a98 04AE4577 		.long	2001055236
 689 0a9c CCFC36D7 		.long	-684262196
 690 0aa0 336B4283 		.long	-2092799181
 691 0aa4 71AB1EF0 		.long	-266425487
 692 0aa8 874180B0 		.long	-1333771897
 693 0aac 5F5E003C 		.long	1006657119
 694 0ab0 BE57A077 		.long	2006996926
 695 0ab4 24AEE8BD 		.long	-1108824540
 696 0ab8 99424655 		.long	1430667929
 697 0abc 612E58BF 		.long	-1084739999
 698 0ac0 8FF4584E 		.long	1314452623
 699 0ac4 A2FDDDF2 		.long	-220332638
 700 0ac8 38EF74F4 		.long	-193663176
 701 0acc C2BD8987 		.long	-2021016126
 702 0ad0 C3F96653 		.long	1399257539
 703 0ad4 748EB3C8 		.long	-927756684
 704 0ad8 55F275B4 		.long	-1267338667
 705 0adc B9D9FC46 		.long	1190975929
 706 0ae0 6126EB7A 		.long	2062231137
 707 0ae4 84DF1D8B 		.long	-1960976508
 708 0ae8 790E6A84 		.long	-2073424263
 709 0aec E2955F91 		.long	-1856006686
 710 0af0 8E596E46 		.long	1181637006
 711 0af4 7057B420 		.long	548689776
 712 0af8 9155D58C 		.long	-1932175983
 713 0afc 4CDE02C9 		.long	-922558900
 714 0b00 E1AC0BB9 		.long	-1190417183
 715 0b04 D00582BB 		.long	-1149106736
 716 0b08 4862A811 		.long	296247880
 717 0b0c 9EA97475 		.long	1970579870
 718 0b10 B6197FB7 		.long	-1216407114
 719 0b14 09DCA9E0 		.long	-525738999
 720 0b18 A1092D66 		.long	1714227617
 721 0b1c 334632C4 		.long	-1003338189
 722 0b20 021F5AE8 		.long	-396747006
 723 0b24 8CBEF009 		.long	166772364
 724 0b28 25A0994A 		.long	1251581989
 725 0b2c 10FE6E1D 		.long	493813264
 726 0b30 1D3DB91A 		.long	448347421
 727 0b34 DFA4A50B 		.long	195405023
 728 0b38 0FF286A1 		.long	-1584991729
 729 0b3c 69F16828 		.long	677966185
 730 0b40 83DAB7DC 		.long	-591930749
 731 0b44 FE063957 		.long	1463355134
 732 0b48 9BCEE2A1 		.long	-1578971493
 733 0b4c 527FCD4F 		.long	1338867538
 734 0b50 015E1150 		.long	1343315457
 735 0b54 FA8306A7 		.long	-1492745222
 736 0b58 C4B502A0 		.long	-1610435132
 737 0b5c 27D0E60D 		.long	233230375
 738 0b60 278CF89A 		.long	-1694987225
 739 0b64 41863F77 		.long	2000651841
 740 0b68 064C60C3 		.long	-1017099258
 741 0b6c B506A861 		.long	1638401717
 742 0b70 287A17F0 		.long	-266896856
 743 0b74 E086F5C0 		.long	-1057650976
 744 0b78 AA586000 		.long	6314154
 745 0b7c 627DDC30 		.long	819756386
 746 0b80 D79EE611 		.long	300326615
 747 0b84 63EA3823 		.long	590932579
 748 0b88 94DDC253 		.long	1405279636
 749 0b8c 3416C2C2 		.long	-1027467724
 750 0b90 56EECBBB 		.long	-1144263082
 751 0b94 DEB6BC90 		.long	-1866680610
 752 0b98 A17DFCEB 		.long	-335774303
 753 0b9c 761D59CE 		.long	-833020554
 754 0ba0 09E4056F 		.long	1862657033
 755 0ba4 88017C4B 		.long	1266418056
 756 0ba8 3D0A7239 		.long	963775037
 757 0bac 247C927C 		.long	2089974820
 758 0bb0 5F72E386 		.long	-2031914401
 759 0bb4 B99D4D72 		.long	1917689273
 760 0bb8 B45BC11A 		.long	448879540
 761 0bbc FCB89ED3 		.long	-744572676
 762 0bc0 785554ED 		.long	-313240200
 763 0bc4 B5A5FC08 		.long	150775221
 764 0bc8 D37C3DD8 		.long	-667058989
 765 0bcc C40FAD4D 		.long	1303187396
 766 0bd0 5EEF501E 		.long	508620638
 767 0bd4 F8E661B1 		.long	-1318983944
 768 0bd8 D91485A2 		.long	-1568336679
 769 0bdc 3C13516C 		.long	1817252668
 770 0be0 E7C7D56F 		.long	1876281319
 771 0be4 C44EE156 		.long	1457606340
 772 0be8 CEBF2A36 		.long	908771278
 773 0bec 37C8C6DD 		.long	-574175177
 774 0bf0 34329AD7 		.long	-677760460
 775 0bf4 12826392 		.long	-1838972398
 776 0bf8 8EFA0E67 		.long	1729034894
 777 0bfc E0006040 		.long	1080033504
 778 0c00 37CE393A 		.long	976866871
 779 0c04 CFF5FAD3 		.long	-738527793
 780 0c08 3777C2AB 		.long	-1413318857
 781 0c0c 1B2DC55A 		.long	1522871579
 782 0c10 9E67B05C 		.long	1555064734
 783 0c14 4237A34F 		.long	1336096578
 784 0c18 402782D3 		.long	-746444992
 785 0c1c BE9BBC99 		.long	-1715692610
 786 0c20 9D8E11D5 		.long	-720269667
 787 0c24 15730FBF 		.long	-1089506539
 788 0c28 7E1C2DD6 		.long	-701686658
 789 0c2c 7BC400C7 		.long	-956251013
 790 0c30 6B1B8CB7 		.long	-1215554709
 791 0c34 4590A121 		.long	564236357
 792 0c38 BEB16EB2 		.long	-1301368386
 793 0c3c B46E366A 		.long	1781952180
 794 0c40 2FAB4857 		.long	1464380207
 795 0c44 796E94BC 		.long	-1131123079
 796 0c48 D276A3C6 		.long	-962365742
 797 0c4c C8C24965 		.long	1699332808
 798 0c50 EEF80F53 		.long	1393555694
 799 0c54 7DDE8D46 		.long	1183702653
 800 0c58 1D0A73D5 		.long	-713881059
 801 0c5c C64DD04C 		.long	1288719814
 802 0c60 DBBB3929 		.long	691649499
 803 0c64 5046BAA9 		.long	-1447410096
 804 0c68 E82695AC 		.long	-1399511320
 805 0c6c 04E35EBE 		.long	-1101077756
 806 0c70 F0D5FAA1 		.long	-1577396752
 807 0c74 9A512D6A 		.long	1781354906
 808 0c78 E28CEF63 		.long	1676643554
 809 0c7c 22EE869A 		.long	-1702433246
 810 0c80 B8C289C0 		.long	-1064713544
 811 0c84 F62E2443 		.long	1126444790
 812 0c88 AA031EA5 		.long	-1524759638
 813 0c8c A4D0F29C 		.long	-1661808476
 814 0c90 BA61C083 		.long	-2084544070
 815 0c94 4D6AE99B 		.long	-1679201715
 816 0c98 5015E58F 		.long	-1880812208
 817 0c9c D65B64BA 		.long	-1167828010
 818 0ca0 F9A22628 		.long	673620729
 819 0ca4 E13A3AA7 		.long	-1489356063
 820 0ca8 8695A94B 		.long	1269405062
 821 0cac E96255EF 		.long	-279616791
 822 0cb0 D3EF2FC7 		.long	-953159725
 823 0cb4 DAF752F7 		.long	-145557542
 824 0cb8 696F043F 		.long	1057255273
 825 0cbc 590AFA77 		.long	2012875353
 826 0cc0 15A9E480 		.long	-2132498155
 827 0cc4 0186B087 		.long	-2018474495
 828 0cc8 ADE6099B 		.long	-1693849939
 829 0ccc 93E53E3B 		.long	993977747
 830 0cd0 5AFD90E9 		.long	-376373926
 831 0cd4 97D7349E 		.long	-1640704105
 832 0cd8 D9B7F02C 		.long	753973209
 833 0cdc 518B2B02 		.long	36408145
 834 0ce0 3AACD596 		.long	-1764381638
 835 0ce4 7DA67D01 		.long	25011837
 836 0ce8 D63ECFD1 		.long	-774947114
 837 0cec 282D7D7C 		.long	2088578344
 838 0cf0 CF259F1F 		.long	530523599
 839 0cf4 9BB8F2AD 		.long	-1376601957
 840 0cf8 72B4D65A 		.long	1524020338
 841 0cfc 4CF5885A 		.long	1518925132
 842 0d00 71AC29E0 		.long	-534139791
 843 0d04 E6A519E0 		.long	-535190042
 844 0d08 FDACB047 		.long	1202760957
 845 0d0c 9BFA93ED 		.long	-309069157
 846 0d10 8DC4D3E8 		.long	-388774771
 847 0d14 CC573B28 		.long	674977740
 848 0d18 2966D5F8 		.long	-120232407
 849 0d1c 282E1379 		.long	2031300136
 850 0d20 91015F78 		.long	2019492241
 851 0d24 556075ED 		.long	-311074731
 852 0d28 440E96F7 		.long	-141160892
 853 0d2c 8C5ED3E3 		.long	-472686964
 854 0d30 D46D0515 		.long	352677332
 855 0d34 BA6DF488 		.long	-1997247046
 856 0d38 2561A103 		.long	60907813
 857 0d3c BDF06405 		.long	90501309
 858 0d40 159EEBC3 		.long	-1007968747
 859 0d44 A257903C 		.long	1016092578
 860 0d48 EC1A2797 		.long	-1759044884
 861 0d4c 2A073AA9 		.long	-1455814870
 862 0d50 9B6D3F1B 		.long	457141659
 863 0d54 F521631E 		.long	509813237
 864 0d58 FB669CF5 		.long	-174299397
 865 0d5c 19F3DC26 		.long	652014361
 866 0d60 28D93375 		.long	1966332200
 867 0d64 F5FD55B1 		.long	-1319764491
 868 0d68 82345603 		.long	55981186
 869 0d6c BB3CBA8A 		.long	-1967506245
 870 0d70 11775128 		.long	676427537
 871 0d74 F8D90AC2 		.long	-1039476232
 872 0d78 6751CCAB 		.long	-1412673177
 873 0d7c 5F92ADCC 		.long	-861040033
 874 0d80 5117E84D 		.long	1307055953
 875 0d84 8EDC3038 		.long	942726286
 876 0d88 62589D37 		.long	933058658
 877 0d8c 91F92093 		.long	-1826555503
 878 0d90 C2907AEA 		.long	-361066302
 879 0d94 CE7B3EFB 		.long	-79791154
 880 0d98 64CE2151 		.long	1361170020
 881 0d9c 32BE4F77 		.long	2001714738
 882 0da0 7EE3B6A8 		.long	-1464409218
 883 0da4 463D29C3 		.long	-1020707514
 884 0da8 6953DE48 		.long	1222529897
 885 0dac 80E61364 		.long	1679025792
 886 0db0 1008AEA2 		.long	-1565652976
 887 0db4 24B26DDD 		.long	-580013532
 888 0db8 FD2D8569 		.long	1770335741
 889 0dbc 66210709 		.long	151462246
 890 0dc0 0A469AB3 		.long	-1281735158
 891 0dc4 DDC04564 		.long	1682292957
 892 0dc8 CFDE6C58 		.long	1483529935
 893 0dcc AEC8201C 		.long	471910574
 894 0dd0 DDF7BE5B 		.long	1539241949
 895 0dd4 408D581B 		.long	458788160
 896 0dd8 7F01D2CC 		.long	-858652289
 897 0ddc BBE3B46B 		.long	1807016891
 898 0de0 7E6AA2DD 		.long	-576558466
 899 0de4 45FF593A 		.long	978976581
 900 0de8 440A353E 		.long	1043663428
 901 0dec D5CDB4BC 		.long	-1129001515
 902 0df0 A8CEEA72 		.long	1927990952
 903 0df4 BB8464FA 		.long	-94075717
 904 0df8 AE12668D 		.long	-1922690386
 905 0dfc 476F3CBF 		.long	-1086558393
 906 0e00 63E49BD2 		.long	-761535389
 907 0e04 9E5D2F54 		.long	1412390302
 908 0e08 1B77C2AE 		.long	-1362987237
 909 0e0c 70634EF6 		.long	-162634896
 910 0e10 8D0D0E74 		.long	1947078029
 911 0e14 57135BE7 		.long	-413461673
 912 0e18 711672F8 		.long	-126740879
 913 0e1c 5D7D53AF 		.long	-1353482915
 914 0e20 08CB4040 		.long	1077988104
 915 0e24 CCE2B44E 		.long	1320477388
 916 0e28 6A46D234 		.long	886195818
 917 0e2c 84AF1501 		.long	18198404
 918 0e30 2804B0E1 		.long	-508558296
 919 0e34 1D3A9895 		.long	-1785185763
 920 0e38 B49FB806 		.long	112762804
 921 0e3c 48A06ECE 		.long	-831610808
 922 0e40 823B3F6F 		.long	1866414978
 923 0e44 82AB2035 		.long	891333506
 924 0e48 4B1D1A01 		.long	18488651
 925 0e4c F8277227 		.long	661792760
 926 0e50 B1601561 		.long	1628790961
 927 0e54 DC3F93E7 		.long	-409780260
 928 0e58 2B793ABB 		.long	-1153795797
 929 0e5c BD254534 		.long	876946877
 930 0e60 E13988A0 		.long	-1601685023
 931 0e64 4B79CE51 		.long	1372485963
 932 0e68 B7C9322F 		.long	791857591
 933 0e6c C9BA1FA0 		.long	-1608533303
 934 0e70 7EC81CE0 		.long	-534984578
 935 0e74 F6D1C7BC 		.long	-1127755274
 936 0e78 C31101CF 		.long	-822013501
 937 0e7c C7AAE8A1 		.long	-1578587449
 938 0e80 4987901A 		.long	445679433
 939 0e84 9ABD4FD4 		.long	-732971622
 940 0e88 CBDEDAD0 		.long	-790962485
 941 0e8c 38DA0AD5 		.long	-720709064
 942 0e90 2AC33903 		.long	54117162
 943 0e94 673691C6 		.long	-963561881
 944 0e98 7C31F98D 		.long	-1913048708
 945 0e9c 4F2BB1E0 		.long	-525259953
 946 0ea0 B7599EF7 		.long	-140617289
 947 0ea4 3ABBF543 		.long	1140177722
 948 0ea8 FF19D5F2 		.long	-220915201
 949 0eac 9C45D927 		.long	668550556
 950 0eb0 2C2297BF 		.long	-1080614356
 951 0eb4 2AFCE615 		.long	367459370
 952 0eb8 71FC910F 		.long	261225585
 953 0ebc 2515949B 		.long	-1684794075
 954 0ec0 6193E5FA 		.long	-85617823
 955 0ec4 EB9CB6CE 		.long	-826893077
 956 0ec8 5964A8C2 		.long	-1029151655
 957 0ecc D1A8BA12 		.long	314222801
 958 0ed0 5E07C1B6 		.long	-1228863650
 959 0ed4 0C6A05E3 		.long	-486184436
 960 0ed8 6550D210 		.long	282218597
 961 0edc 42A403CB 		.long	-888953790
 962 0ee0 0E6EECE0 		.long	-521376242
 963 0ee4 3BDB9816 		.long	379116347
 964 0ee8 BEA0984C 		.long	1285071038
 965 0eec 64E97832 		.long	846784868
 966 0ef0 32951F9F 		.long	-1625320142
 967 0ef4 DF92D3E0 		.long	-523005217
 968 0ef8 2B34A0D3 		.long	-744475605
 969 0efc 1EF27189 		.long	-1989021154
 970 0f00 41740A1B 		.long	453669953
 971 0f04 8C34A34B 		.long	1268987020
 972 0f08 2071BEC5 		.long	-977374944
 973 0f0c D83276C3 		.long	-1015663912
 974 0f10 8D9F35DF 		.long	-550133875
 975 0f14 2E2F999B 		.long	-1684459730
 976 0f18 476F0BE6 		.long	-435458233
 977 0f1c 1DF1E30F 		.long	266596637
 978 0f20 54DA4CE5 		.long	-447948204
 979 0f24 91D8DA1E 		.long	517658769
 980 0f28 CF7962CE 		.long	-832407089
 981 0f2c 6F7E3ECD 		.long	-851542417
 982 0f30 66B11816 		.long	370717030
 983 0f34 051D2CFD 		.long	-47440635
 984 0f38 C5D28F84 		.long	-2070949179
 985 0f3c 9922FBF6 		.long	-151313767
 986 0f40 57F323F5 		.long	-182193321
 987 0f44 237632A6 		.long	-1506642397
 988 0f48 3135A893 		.long	-1817692879
 989 0f4c 02CDCC56 		.long	1456262402
 990 0f50 6281F0AC 		.long	-1393524382
 991 0f54 B5EB755A 		.long	1517677493
 992 0f58 9736166E 		.long	1846949527
 993 0f5c CC73D288 		.long	-1999473716
 994 0f60 926296DE 		.long	-560569710
 995 0f64 D049B981 		.long	-2118563376
 996 0f68 1B90504C 		.long	1280348187
 997 0f6c 1456C671 		.long	1908823572
 998 0f70 BDC7C6E6 		.long	-423180355
 999 0f74 0A147A32 		.long	846861322
 1000 0f78 06D0E145 		.long	1172426758
 1001 0f7c 9A7BF2C3 		.long	-1007518822
 1002 0f80 FD53AAC9 		.long	-911584259
 1003 0f84 000FA862 		.long	1655181056
 1004 0f88 E2BF25BB 		.long	-1155153950
 1005 0f8c F6D2BD35 		.long	901632758
 1006 0f90 05691271 		.long	1897031941
 1007 0f94 220204B2 		.long	-1308360158
 1008 0f98 7CCFCBB6 		.long	-1228157060
 1009 0f9c 2B9C76CD 		.long	-847864789
 1010 0fa0 C03E1153 		.long	1393639104
 1011 0fa4 D3E34016 		.long	373351379
 1012 0fa8 60BDAB38 		.long	950779232
 1013 0fac F0AD4725 		.long	625454576
 1014 0fb0 9C2038BA 		.long	-1170726756
 1015 0fb4 76CE46F7 		.long	-146354570
 1016 0fb8 C5A1AF77 		.long	2007998917
 1017 0fbc 60607520 		.long	544563296
 1018 0fc0 4EFECB85 		.long	-2050228658
 1019 0fc4 D88DE88A 		.long	-1964470824
 1020 0fc8 B0F9AA7A 		.long	2058025392
 1021 0fcc 7EAAF94C 		.long	1291430526
 1022 0fd0 5CC24819 		.long	424198748
 1023 0fd4 8C8AFB02 		.long	50039436
 1024 0fd8 E46AC301 		.long	29584100
 1025 0fdc F9E1EBD6 		.long	-689184263
 1026 0fe0 69F8D490 		.long	-1865090967
 1027 0fe4 A0DE5CA6 		.long	-1503863136
 1028 0fe8 2D25093F 		.long	1057563949
 1029 0fec 9FE608C2 		.long	-1039604065
 1030 0ff0 32614EB7 		.long	-1219600078
 1031 0ff4 5BE277CE 		.long	-831004069
 1032 0ff8 E3DF8F57 		.long	1469046755
 1033 0ffc E672C33A 		.long	985887462
 1034 1000 886A3F24 		.long	608135816
 1035 1004 D308A385 		.long	-2052912941
 1036 1008 2E8A1913 		.long	320440878
 1037 100c 44737003 		.long	57701188
 1038 1010 223809A4 		.long	-1542899678
 1039 1014 D0319F29 		.long	698298832
 1040 1018 98FA2E08 		.long	137296536
 1041 101c 896C4EEC 		.long	-330404727
 1042 1020 E6212845 		.long	1160258022
 1043 1024 7713D038 		.long	953160567
 1044 1028 CF6654BE 		.long	-1101764913
 1045 102c 6C0CE934 		.long	887688300
 1046 1030 B729ACC0 		.long	-1062458953
 1047 1034 DD507CC9 		.long	-914599715
 1048 1038 B5D5843F 		.long	1065670069
 1049 103c 170947B5 		.long	-1253635817
 1050 1040 D9D51692 		.long	-1843997223
 1051 1044 1BFB7989 		.long	-1988494565
 1052              		.text
 1053              		.globl	_nettle_blowfish_encround
 1055              	_nettle_blowfish_encround:
 1056              	.LFB0:
 1057              		.file 1 "blowfish.c"
   1:blowfish.c    **** /* blowfish.c
   2:blowfish.c    **** 
   3:blowfish.c    ****    The blowfish block cipher.
   4:blowfish.c    **** 
   5:blowfish.c    ****    Copyright (C) 2014 Niels Möller
   6:blowfish.c    ****    Copyright (C) 2010  Simon Josefsson
   7:blowfish.c    ****    Copyright (C) 1998, 2001, 2002, 2003 Free Software Foundation, Inc.
   8:blowfish.c    **** 
   9:blowfish.c    ****    This file is part of GNU Nettle.
  10:blowfish.c    **** 
  11:blowfish.c    ****    GNU Nettle is free software: you can redistribute it and/or
  12:blowfish.c    ****    modify it under the terms of either:
  13:blowfish.c    **** 
  14:blowfish.c    ****      * the GNU Lesser General Public License as published by the Free
  15:blowfish.c    ****        Software Foundation; either version 3 of the License, or (at your
  16:blowfish.c    ****        option) any later version.
  17:blowfish.c    **** 
  18:blowfish.c    ****    or
  19:blowfish.c    **** 
  20:blowfish.c    ****      * the GNU General Public License as published by the Free
  21:blowfish.c    ****        Software Foundation; either version 2 of the License, or (at your
  22:blowfish.c    ****        option) any later version.
  23:blowfish.c    **** 
  24:blowfish.c    ****    or both in parallel, as here.
  25:blowfish.c    **** 
  26:blowfish.c    ****    GNU Nettle is distributed in the hope that it will be useful,
  27:blowfish.c    ****    but WITHOUT ANY WARRANTY; without even the implied warranty of
  28:blowfish.c    ****    MERCHANTABILITY or FITNESS FOR A PARTICULAR PURPOSE.  See the GNU
  29:blowfish.c    ****    General Public License for more details.
  30:blowfish.c    **** 
  31:blowfish.c    ****    You should have received copies of the GNU General Public License and
  32:blowfish.c    ****    the GNU Lesser General Public License along with this program.  If
  33:blowfish.c    ****    not, see http://www.gnu.org/licenses/.
  34:blowfish.c    **** */
  35:blowfish.c    **** 
  36:blowfish.c    **** /* For a description of the algorithm, see:
  37:blowfish.c    ****  *   Bruce Schneier: Applied Cryptography. John Wiley & Sons, 1996.
  38:blowfish.c    ****  *   ISBN 0-471-11709-9. Pages 336 ff.
  39:blowfish.c    ****  */
  40:blowfish.c    **** 
  41:blowfish.c    **** /* This file is derived from cipher/blowfish.c in Libgcrypt v1.4.6.
  42:blowfish.c    ****    The adaption to Nettle was made by Simon Josefsson on 2010-11-23.
  43:blowfish.c    ****    Changes include removing the selftest, renaming u32/byte types to
  44:blowfish.c    ****    uint32_t/uint8_t, renaming BLOWFISH_ROUNDS to _BLOWFISH_ROUNDS
  45:blowfish.c    ****    (from Nettle's blowfish.h), dropping the libgcrypt wrapper
  46:blowfish.c    ****    functions, fixing #include's, remove support for non-16 rounds
  47:blowfish.c    ****    (there are no test vectors), adding FOR_BLOCK iterations, and
  48:blowfish.c    ****    running indent on the code. */
  49:blowfish.c    **** 
  50:blowfish.c    **** #if HAVE_CONFIG_H
  51:blowfish.c    **** #include "config.h"
  52:blowfish.c    **** #endif
  53:blowfish.c    **** 
  54:blowfish.c    **** #include <assert.h>
  55:blowfish.c    **** 
  56:blowfish.c    **** #include "blowfish.h"
  57:blowfish.c    **** #include "blowfish-internal.h"
  58:blowfish.c    **** 
  59:blowfish.c    **** #include "macros.h"
  60:blowfish.c    **** 
  61:blowfish.c    **** /* precomputed S boxes */
  62:blowfish.c    **** const struct blowfish_ctx
  63:blowfish.c    **** _nettle_blowfish_initial_ctx = {
  64:blowfish.c    ****   {
  65:blowfish.c    ****     { /* ks0 */
  66:blowfish.c    ****       0xD1310BA6, 0x98DFB5AC, 0x2FFD72DB, 0xD01ADFB7, 0xB8E1AFED, 0x6A267E96,
  67:blowfish.c    ****       0xBA7C9045, 0xF12C7F99, 0x24A19947, 0xB3916CF7, 0x0801F2E2, 0x858EFC16,
  68:blowfish.c    ****       0x636920D8, 0x71574E69, 0xA458FEA3, 0xF4933D7E, 0x0D95748F, 0x728EB658,
  69:blowfish.c    ****       0x718BCD58, 0x82154AEE, 0x7B54A41D, 0xC25A59B5, 0x9C30D539, 0x2AF26013,
  70:blowfish.c    ****       0xC5D1B023, 0x286085F0, 0xCA417918, 0xB8DB38EF, 0x8E79DCB0, 0x603A180E,
  71:blowfish.c    ****       0x6C9E0E8B, 0xB01E8A3E, 0xD71577C1, 0xBD314B27, 0x78AF2FDA, 0x55605C60,
  72:blowfish.c    ****       0xE65525F3, 0xAA55AB94, 0x57489862, 0x63E81440, 0x55CA396A, 0x2AAB10B6,
  73:blowfish.c    ****       0xB4CC5C34, 0x1141E8CE, 0xA15486AF, 0x7C72E993, 0xB3EE1411, 0x636FBC2A,
  74:blowfish.c    ****       0x2BA9C55D, 0x741831F6, 0xCE5C3E16, 0x9B87931E, 0xAFD6BA33, 0x6C24CF5C,
  75:blowfish.c    ****       0x7A325381, 0x28958677, 0x3B8F4898, 0x6B4BB9AF, 0xC4BFE81B, 0x66282193,
  76:blowfish.c    ****       0x61D809CC, 0xFB21A991, 0x487CAC60, 0x5DEC8032, 0xEF845D5D, 0xE98575B1,
  77:blowfish.c    ****       0xDC262302, 0xEB651B88, 0x23893E81, 0xD396ACC5, 0x0F6D6FF3, 0x83F44239,
  78:blowfish.c    ****       0x2E0B4482, 0xA4842004, 0x69C8F04A, 0x9E1F9B5E, 0x21C66842, 0xF6E96C9A,
  79:blowfish.c    ****       0x670C9C61, 0xABD388F0, 0x6A51A0D2, 0xD8542F68, 0x960FA728, 0xAB5133A3,
  80:blowfish.c    ****       0x6EEF0B6C, 0x137A3BE4, 0xBA3BF050, 0x7EFB2A98, 0xA1F1651D, 0x39AF0176,
  81:blowfish.c    ****       0x66CA593E, 0x82430E88, 0x8CEE8619, 0x456F9FB4, 0x7D84A5C3, 0x3B8B5EBE,
  82:blowfish.c    ****       0xE06F75D8, 0x85C12073, 0x401A449F, 0x56C16AA6, 0x4ED3AA62, 0x363F7706,
  83:blowfish.c    ****       0x1BFEDF72, 0x429B023D, 0x37D0D724, 0xD00A1248, 0xDB0FEAD3, 0x49F1C09B,
  84:blowfish.c    ****       0x075372C9, 0x80991B7B, 0x25D479D8, 0xF6E8DEF7, 0xE3FE501A, 0xB6794C3B,
  85:blowfish.c    ****       0x976CE0BD, 0x04C006BA, 0xC1A94FB6, 0x409F60C4, 0x5E5C9EC2, 0x196A2463,
  86:blowfish.c    ****       0x68FB6FAF, 0x3E6C53B5, 0x1339B2EB, 0x3B52EC6F, 0x6DFC511F, 0x9B30952C,
  87:blowfish.c    ****       0xCC814544, 0xAF5EBD09, 0xBEE3D004, 0xDE334AFD, 0x660F2807, 0x192E4BB3,
  88:blowfish.c    ****       0xC0CBA857, 0x45C8740F, 0xD20B5F39, 0xB9D3FBDB, 0x5579C0BD, 0x1A60320A,
  89:blowfish.c    ****       0xD6A100C6, 0x402C7279, 0x679F25FE, 0xFB1FA3CC, 0x8EA5E9F8, 0xDB3222F8,
  90:blowfish.c    ****       0x3C7516DF, 0xFD616B15, 0x2F501EC8, 0xAD0552AB, 0x323DB5FA, 0xFD238760,
  91:blowfish.c    ****       0x53317B48, 0x3E00DF82, 0x9E5C57BB, 0xCA6F8CA0, 0x1A87562E, 0xDF1769DB,
  92:blowfish.c    ****       0xD542A8F6, 0x287EFFC3, 0xAC6732C6, 0x8C4F5573, 0x695B27B0, 0xBBCA58C8,
  93:blowfish.c    ****       0xE1FFA35D, 0xB8F011A0, 0x10FA3D98, 0xFD2183B8, 0x4AFCB56C, 0x2DD1D35B,
  94:blowfish.c    ****       0x9A53E479, 0xB6F84565, 0xD28E49BC, 0x4BFB9790, 0xE1DDF2DA, 0xA4CB7E33,
  95:blowfish.c    ****       0x62FB1341, 0xCEE4C6E8, 0xEF20CADA, 0x36774C01, 0xD07E9EFE, 0x2BF11FB4,
  96:blowfish.c    ****       0x95DBDA4D, 0xAE909198, 0xEAAD8E71, 0x6B93D5A0, 0xD08ED1D0, 0xAFC725E0,
  97:blowfish.c    ****       0x8E3C5B2F, 0x8E7594B7, 0x8FF6E2FB, 0xF2122B64, 0x8888B812, 0x900DF01C,
  98:blowfish.c    ****       0x4FAD5EA0, 0x688FC31C, 0xD1CFF191, 0xB3A8C1AD, 0x2F2F2218, 0xBE0E1777,
  99:blowfish.c    ****       0xEA752DFE, 0x8B021FA1, 0xE5A0CC0F, 0xB56F74E8, 0x18ACF3D6, 0xCE89E299,
 100:blowfish.c    ****       0xB4A84FE0, 0xFD13E0B7, 0x7CC43B81, 0xD2ADA8D9, 0x165FA266, 0x80957705,
 101:blowfish.c    ****       0x93CC7314, 0x211A1477, 0xE6AD2065, 0x77B5FA86, 0xC75442F5, 0xFB9D35CF,
 102:blowfish.c    ****       0xEBCDAF0C, 0x7B3E89A0, 0xD6411BD3, 0xAE1E7E49, 0x00250E2D, 0x2071B35E,
 103:blowfish.c    ****       0x226800BB, 0x57B8E0AF, 0x2464369B, 0xF009B91E, 0x5563911D, 0x59DFA6AA,
 104:blowfish.c    ****       0x78C14389, 0xD95A537F, 0x207D5BA2, 0x02E5B9C5, 0x83260376, 0x6295CFA9,
 105:blowfish.c    ****       0x11C81968, 0x4E734A41, 0xB3472DCA, 0x7B14A94A, 0x1B510052, 0x9A532915,
 106:blowfish.c    ****       0xD60F573F, 0xBC9BC6E4, 0x2B60A476, 0x81E67400, 0x08BA6FB5, 0x571BE91F,
 107:blowfish.c    ****       0xF296EC6B, 0x2A0DD915, 0xB6636521, 0xE7B9F9B6, 0xFF34052E, 0xC5855664,
 108:blowfish.c    ****       0x53B02D5D, 0xA99F8FA1, 0x08BA4799, 0x6E85076A
 109:blowfish.c    ****     },
 110:blowfish.c    ****     { /* ks1 */
 111:blowfish.c    ****       0x4B7A70E9, 0xB5B32944, 0xDB75092E, 0xC4192623, 0xAD6EA6B0, 0x49A7DF7D,
 112:blowfish.c    ****       0x9CEE60B8, 0x8FEDB266, 0xECAA8C71, 0x699A17FF, 0x5664526C, 0xC2B19EE1,
 113:blowfish.c    ****       0x193602A5, 0x75094C29, 0xA0591340, 0xE4183A3E, 0x3F54989A, 0x5B429D65,
 114:blowfish.c    ****       0x6B8FE4D6, 0x99F73FD6, 0xA1D29C07, 0xEFE830F5, 0x4D2D38E6, 0xF0255DC1,
 115:blowfish.c    ****       0x4CDD2086, 0x8470EB26, 0x6382E9C6, 0x021ECC5E, 0x09686B3F, 0x3EBAEFC9,
 116:blowfish.c    ****       0x3C971814, 0x6B6A70A1, 0x687F3584, 0x52A0E286, 0xB79C5305, 0xAA500737,
 117:blowfish.c    ****       0x3E07841C, 0x7FDEAE5C, 0x8E7D44EC, 0x5716F2B8, 0xB03ADA37, 0xF0500C0D,
 118:blowfish.c    ****       0xF01C1F04, 0x0200B3FF, 0xAE0CF51A, 0x3CB574B2, 0x25837A58, 0xDC0921BD,
 119:blowfish.c    ****       0xD19113F9, 0x7CA92FF6, 0x94324773, 0x22F54701, 0x3AE5E581, 0x37C2DADC,
 120:blowfish.c    ****       0xC8B57634, 0x9AF3DDA7, 0xA9446146, 0x0FD0030E, 0xECC8C73E, 0xA4751E41,
 121:blowfish.c    ****       0xE238CD99, 0x3BEA0E2F, 0x3280BBA1, 0x183EB331, 0x4E548B38, 0x4F6DB908,
 122:blowfish.c    ****       0x6F420D03, 0xF60A04BF, 0x2CB81290, 0x24977C79, 0x5679B072, 0xBCAF89AF,
 123:blowfish.c    ****       0xDE9A771F, 0xD9930810, 0xB38BAE12, 0xDCCF3F2E, 0x5512721F, 0x2E6B7124,
 124:blowfish.c    ****       0x501ADDE6, 0x9F84CD87, 0x7A584718, 0x7408DA17, 0xBC9F9ABC, 0xE94B7D8C,
 125:blowfish.c    ****       0xEC7AEC3A, 0xDB851DFA, 0x63094366, 0xC464C3D2, 0xEF1C1847, 0x3215D908,
 126:blowfish.c    ****       0xDD433B37, 0x24C2BA16, 0x12A14D43, 0x2A65C451, 0x50940002, 0x133AE4DD,
 127:blowfish.c    ****       0x71DFF89E, 0x10314E55, 0x81AC77D6, 0x5F11199B, 0x043556F1, 0xD7A3C76B,
 128:blowfish.c    ****       0x3C11183B, 0x5924A509, 0xF28FE6ED, 0x97F1FBFA, 0x9EBABF2C, 0x1E153C6E,
 129:blowfish.c    ****       0x86E34570, 0xEAE96FB1, 0x860E5E0A, 0x5A3E2AB3, 0x771FE71C, 0x4E3D06FA,
 130:blowfish.c    ****       0x2965DCB9, 0x99E71D0F, 0x803E89D6, 0x5266C825, 0x2E4CC978, 0x9C10B36A,
 131:blowfish.c    ****       0xC6150EBA, 0x94E2EA78, 0xA5FC3C53, 0x1E0A2DF4, 0xF2F74EA7, 0x361D2B3D,
 132:blowfish.c    ****       0x1939260F, 0x19C27960, 0x5223A708, 0xF71312B6, 0xEBADFE6E, 0xEAC31F66,
 133:blowfish.c    ****       0xE3BC4595, 0xA67BC883, 0xB17F37D1, 0x018CFF28, 0xC332DDEF, 0xBE6C5AA5,
 134:blowfish.c    ****       0x65582185, 0x68AB9802, 0xEECEA50F, 0xDB2F953B, 0x2AEF7DAD, 0x5B6E2F84,
 135:blowfish.c    ****       0x1521B628, 0x29076170, 0xECDD4775, 0x619F1510, 0x13CCA830, 0xEB61BD96,
 136:blowfish.c    ****       0x0334FE1E, 0xAA0363CF, 0xB5735C90, 0x4C70A239, 0xD59E9E0B, 0xCBAADE14,
 137:blowfish.c    ****       0xEECC86BC, 0x60622CA7, 0x9CAB5CAB, 0xB2F3846E, 0x648B1EAF, 0x19BDF0CA,
 138:blowfish.c    ****       0xA02369B9, 0x655ABB50, 0x40685A32, 0x3C2AB4B3, 0x319EE9D5, 0xC021B8F7,
 139:blowfish.c    ****       0x9B540B19, 0x875FA099, 0x95F7997E, 0x623D7DA8, 0xF837889A, 0x97E32D77,
 140:blowfish.c    ****       0x11ED935F, 0x16681281, 0x0E358829, 0xC7E61FD6, 0x96DEDFA1, 0x7858BA99,
 141:blowfish.c    ****       0x57F584A5, 0x1B227263, 0x9B83C3FF, 0x1AC24696, 0xCDB30AEB, 0x532E3054,
 142:blowfish.c    ****       0x8FD948E4, 0x6DBC3128, 0x58EBF2EF, 0x34C6FFEA, 0xFE28ED61, 0xEE7C3C73,
 143:blowfish.c    ****       0x5D4A14D9, 0xE864B7E3, 0x42105D14, 0x203E13E0, 0x45EEE2B6, 0xA3AAABEA,
 144:blowfish.c    ****       0xDB6C4F15, 0xFACB4FD0, 0xC742F442, 0xEF6ABBB5, 0x654F3B1D, 0x41CD2105,
 145:blowfish.c    ****       0xD81E799E, 0x86854DC7, 0xE44B476A, 0x3D816250, 0xCF62A1F2, 0x5B8D2646,
 146:blowfish.c    ****       0xFC8883A0, 0xC1C7B6A3, 0x7F1524C3, 0x69CB7492, 0x47848A0B, 0x5692B285,
 147:blowfish.c    ****       0x095BBF00, 0xAD19489D, 0x1462B174, 0x23820E00, 0x58428D2A, 0x0C55F5EA,
 148:blowfish.c    ****       0x1DADF43E, 0x233F7061, 0x3372F092, 0x8D937E41, 0xD65FECF1, 0x6C223BDB,
 149:blowfish.c    ****       0x7CDE3759, 0xCBEE7460, 0x4085F2A7, 0xCE77326E, 0xA6078084, 0x19F8509E,
 150:blowfish.c    ****       0xE8EFD855, 0x61D99735, 0xA969A7AA, 0xC50C06C2, 0x5A04ABFC, 0x800BCADC,
 151:blowfish.c    ****       0x9E447A2E, 0xC3453484, 0xFDD56705, 0x0E1E9EC9, 0xDB73DBD3, 0x105588CD,
 152:blowfish.c    ****       0x675FDA79, 0xE3674340, 0xC5C43465, 0x713E38D8, 0x3D28F89E, 0xF16DFF20,
 153:blowfish.c    ****       0x153E21E7, 0x8FB03D4A, 0xE6E39F2B, 0xDB83ADF7
 154:blowfish.c    ****     },
 155:blowfish.c    ****     { /* ks2 */
 156:blowfish.c    ****       0xE93D5A68, 0x948140F7, 0xF64C261C, 0x94692934, 0x411520F7, 0x7602D4F7,
 157:blowfish.c    ****       0xBCF46B2E, 0xD4A20068, 0xD4082471, 0x3320F46A, 0x43B7D4B7, 0x500061AF,
 158:blowfish.c    ****       0x1E39F62E, 0x97244546, 0x14214F74, 0xBF8B8840, 0x4D95FC1D, 0x96B591AF,
 159:blowfish.c    ****       0x70F4DDD3, 0x66A02F45, 0xBFBC09EC, 0x03BD9785, 0x7FAC6DD0, 0x31CB8504,
 160:blowfish.c    ****       0x96EB27B3, 0x55FD3941, 0xDA2547E6, 0xABCA0A9A, 0x28507825, 0x530429F4,
 161:blowfish.c    ****       0x0A2C86DA, 0xE9B66DFB, 0x68DC1462, 0xD7486900, 0x680EC0A4, 0x27A18DEE,
 162:blowfish.c    ****       0x4F3FFEA2, 0xE887AD8C, 0xB58CE006, 0x7AF4D6B6, 0xAACE1E7C, 0xD3375FEC,
 163:blowfish.c    ****       0xCE78A399, 0x406B2A42, 0x20FE9E35, 0xD9F385B9, 0xEE39D7AB, 0x3B124E8B,
 164:blowfish.c    ****       0x1DC9FAF7, 0x4B6D1856, 0x26A36631, 0xEAE397B2, 0x3A6EFA74, 0xDD5B4332,
 165:blowfish.c    ****       0x6841E7F7, 0xCA7820FB, 0xFB0AF54E, 0xD8FEB397, 0x454056AC, 0xBA489527,
 166:blowfish.c    ****       0x55533A3A, 0x20838D87, 0xFE6BA9B7, 0xD096954B, 0x55A867BC, 0xA1159A58,
 167:blowfish.c    ****       0xCCA92963, 0x99E1DB33, 0xA62A4A56, 0x3F3125F9, 0x5EF47E1C, 0x9029317C,
 168:blowfish.c    ****       0xFDF8E802, 0x04272F70, 0x80BB155C, 0x05282CE3, 0x95C11548, 0xE4C66D22,
 169:blowfish.c    ****       0x48C1133F, 0xC70F86DC, 0x07F9C9EE, 0x41041F0F, 0x404779A4, 0x5D886E17,
 170:blowfish.c    ****       0x325F51EB, 0xD59BC0D1, 0xF2BCC18F, 0x41113564, 0x257B7834, 0x602A9C60,
 171:blowfish.c    ****       0xDFF8E8A3, 0x1F636C1B, 0x0E12B4C2, 0x02E1329E, 0xAF664FD1, 0xCAD18115,
 172:blowfish.c    ****       0x6B2395E0, 0x333E92E1, 0x3B240B62, 0xEEBEB922, 0x85B2A20E, 0xE6BA0D99,
 173:blowfish.c    ****       0xDE720C8C, 0x2DA2F728, 0xD0127845, 0x95B794FD, 0x647D0862, 0xE7CCF5F0,
 174:blowfish.c    ****       0x5449A36F, 0x877D48FA, 0xC39DFD27, 0xF33E8D1E, 0x0A476341, 0x992EFF74,
 175:blowfish.c    ****       0x3A6F6EAB, 0xF4F8FD37, 0xA812DC60, 0xA1EBDDF8, 0x991BE14C, 0xDB6E6B0D,
 176:blowfish.c    ****       0xC67B5510, 0x6D672C37, 0x2765D43B, 0xDCD0E804, 0xF1290DC7, 0xCC00FFA3,
 177:blowfish.c    ****       0xB5390F92, 0x690FED0B, 0x667B9FFB, 0xCEDB7D9C, 0xA091CF0B, 0xD9155EA3,
 178:blowfish.c    ****       0xBB132F88, 0x515BAD24, 0x7B9479BF, 0x763BD6EB, 0x37392EB3, 0xCC115979,
 179:blowfish.c    ****       0x8026E297, 0xF42E312D, 0x6842ADA7, 0xC66A2B3B, 0x12754CCC, 0x782EF11C,
 180:blowfish.c    ****       0x6A124237, 0xB79251E7, 0x06A1BBE6, 0x4BFB6350, 0x1A6B1018, 0x11CAEDFA,
 181:blowfish.c    ****       0x3D25BDD8, 0xE2E1C3C9, 0x44421659, 0x0A121386, 0xD90CEC6E, 0xD5ABEA2A,
 182:blowfish.c    ****       0x64AF674E, 0xDA86A85F, 0xBEBFE988, 0x64E4C3FE, 0x9DBC8057, 0xF0F7C086,
 183:blowfish.c    ****       0x60787BF8, 0x6003604D, 0xD1FD8346, 0xF6381FB0, 0x7745AE04, 0xD736FCCC,
 184:blowfish.c    ****       0x83426B33, 0xF01EAB71, 0xB0804187, 0x3C005E5F, 0x77A057BE, 0xBDE8AE24,
 185:blowfish.c    ****       0x55464299, 0xBF582E61, 0x4E58F48F, 0xF2DDFDA2, 0xF474EF38, 0x8789BDC2,
 186:blowfish.c    ****       0x5366F9C3, 0xC8B38E74, 0xB475F255, 0x46FCD9B9, 0x7AEB2661, 0x8B1DDF84,
 187:blowfish.c    ****       0x846A0E79, 0x915F95E2, 0x466E598E, 0x20B45770, 0x8CD55591, 0xC902DE4C,
 188:blowfish.c    ****       0xB90BACE1, 0xBB8205D0, 0x11A86248, 0x7574A99E, 0xB77F19B6, 0xE0A9DC09,
 189:blowfish.c    ****       0x662D09A1, 0xC4324633, 0xE85A1F02, 0x09F0BE8C, 0x4A99A025, 0x1D6EFE10,
 190:blowfish.c    ****       0x1AB93D1D, 0x0BA5A4DF, 0xA186F20F, 0x2868F169, 0xDCB7DA83, 0x573906FE,
 191:blowfish.c    ****       0xA1E2CE9B, 0x4FCD7F52, 0x50115E01, 0xA70683FA, 0xA002B5C4, 0x0DE6D027,
 192:blowfish.c    ****       0x9AF88C27, 0x773F8641, 0xC3604C06, 0x61A806B5, 0xF0177A28, 0xC0F586E0,
 193:blowfish.c    ****       0x006058AA, 0x30DC7D62, 0x11E69ED7, 0x2338EA63, 0x53C2DD94, 0xC2C21634,
 194:blowfish.c    ****       0xBBCBEE56, 0x90BCB6DE, 0xEBFC7DA1, 0xCE591D76, 0x6F05E409, 0x4B7C0188,
 195:blowfish.c    ****       0x39720A3D, 0x7C927C24, 0x86E3725F, 0x724D9DB9, 0x1AC15BB4, 0xD39EB8FC,
 196:blowfish.c    ****       0xED545578, 0x08FCA5B5, 0xD83D7CD3, 0x4DAD0FC4, 0x1E50EF5E, 0xB161E6F8,
 197:blowfish.c    ****       0xA28514D9, 0x6C51133C, 0x6FD5C7E7, 0x56E14EC4, 0x362ABFCE, 0xDDC6C837,
 198:blowfish.c    ****       0xD79A3234, 0x92638212, 0x670EFA8E, 0x406000E0
 199:blowfish.c    ****     },
 200:blowfish.c    ****     { /* ks3 */
 201:blowfish.c    ****       0x3A39CE37, 0xD3FAF5CF, 0xABC27737, 0x5AC52D1B, 0x5CB0679E, 0x4FA33742,
 202:blowfish.c    ****       0xD3822740, 0x99BC9BBE, 0xD5118E9D, 0xBF0F7315, 0xD62D1C7E, 0xC700C47B,
 203:blowfish.c    ****       0xB78C1B6B, 0x21A19045, 0xB26EB1BE, 0x6A366EB4, 0x5748AB2F, 0xBC946E79,
 204:blowfish.c    ****       0xC6A376D2, 0x6549C2C8, 0x530FF8EE, 0x468DDE7D, 0xD5730A1D, 0x4CD04DC6,
 205:blowfish.c    ****       0x2939BBDB, 0xA9BA4650, 0xAC9526E8, 0xBE5EE304, 0xA1FAD5F0, 0x6A2D519A,
 206:blowfish.c    ****       0x63EF8CE2, 0x9A86EE22, 0xC089C2B8, 0x43242EF6, 0xA51E03AA, 0x9CF2D0A4,
 207:blowfish.c    ****       0x83C061BA, 0x9BE96A4D, 0x8FE51550, 0xBA645BD6, 0x2826A2F9, 0xA73A3AE1,
 208:blowfish.c    ****       0x4BA99586, 0xEF5562E9, 0xC72FEFD3, 0xF752F7DA, 0x3F046F69, 0x77FA0A59,
 209:blowfish.c    ****       0x80E4A915, 0x87B08601, 0x9B09E6AD, 0x3B3EE593, 0xE990FD5A, 0x9E34D797,
 210:blowfish.c    ****       0x2CF0B7D9, 0x022B8B51, 0x96D5AC3A, 0x017DA67D, 0xD1CF3ED6, 0x7C7D2D28,
 211:blowfish.c    ****       0x1F9F25CF, 0xADF2B89B, 0x5AD6B472, 0x5A88F54C, 0xE029AC71, 0xE019A5E6,
 212:blowfish.c    ****       0x47B0ACFD, 0xED93FA9B, 0xE8D3C48D, 0x283B57CC, 0xF8D56629, 0x79132E28,
 213:blowfish.c    ****       0x785F0191, 0xED756055, 0xF7960E44, 0xE3D35E8C, 0x15056DD4, 0x88F46DBA,
 214:blowfish.c    ****       0x03A16125, 0x0564F0BD, 0xC3EB9E15, 0x3C9057A2, 0x97271AEC, 0xA93A072A,
 215:blowfish.c    ****       0x1B3F6D9B, 0x1E6321F5, 0xF59C66FB, 0x26DCF319, 0x7533D928, 0xB155FDF5,
 216:blowfish.c    ****       0x03563482, 0x8ABA3CBB, 0x28517711, 0xC20AD9F8, 0xABCC5167, 0xCCAD925F,
 217:blowfish.c    ****       0x4DE81751, 0x3830DC8E, 0x379D5862, 0x9320F991, 0xEA7A90C2, 0xFB3E7BCE,
 218:blowfish.c    ****       0x5121CE64, 0x774FBE32, 0xA8B6E37E, 0xC3293D46, 0x48DE5369, 0x6413E680,
 219:blowfish.c    ****       0xA2AE0810, 0xDD6DB224, 0x69852DFD, 0x09072166, 0xB39A460A, 0x6445C0DD,
 220:blowfish.c    ****       0x586CDECF, 0x1C20C8AE, 0x5BBEF7DD, 0x1B588D40, 0xCCD2017F, 0x6BB4E3BB,
 221:blowfish.c    ****       0xDDA26A7E, 0x3A59FF45, 0x3E350A44, 0xBCB4CDD5, 0x72EACEA8, 0xFA6484BB,
 222:blowfish.c    ****       0x8D6612AE, 0xBF3C6F47, 0xD29BE463, 0x542F5D9E, 0xAEC2771B, 0xF64E6370,
 223:blowfish.c    ****       0x740E0D8D, 0xE75B1357, 0xF8721671, 0xAF537D5D, 0x4040CB08, 0x4EB4E2CC,
 224:blowfish.c    ****       0x34D2466A, 0x0115AF84, 0xE1B00428, 0x95983A1D, 0x06B89FB4, 0xCE6EA048,
 225:blowfish.c    ****       0x6F3F3B82, 0x3520AB82, 0x011A1D4B, 0x277227F8, 0x611560B1, 0xE7933FDC,
 226:blowfish.c    ****       0xBB3A792B, 0x344525BD, 0xA08839E1, 0x51CE794B, 0x2F32C9B7, 0xA01FBAC9,
 227:blowfish.c    ****       0xE01CC87E, 0xBCC7D1F6, 0xCF0111C3, 0xA1E8AAC7, 0x1A908749, 0xD44FBD9A,
 228:blowfish.c    ****       0xD0DADECB, 0xD50ADA38, 0x0339C32A, 0xC6913667, 0x8DF9317C, 0xE0B12B4F,
 229:blowfish.c    ****       0xF79E59B7, 0x43F5BB3A, 0xF2D519FF, 0x27D9459C, 0xBF97222C, 0x15E6FC2A,
 230:blowfish.c    ****       0x0F91FC71, 0x9B941525, 0xFAE59361, 0xCEB69CEB, 0xC2A86459, 0x12BAA8D1,
 231:blowfish.c    ****       0xB6C1075E, 0xE3056A0C, 0x10D25065, 0xCB03A442, 0xE0EC6E0E, 0x1698DB3B,
 232:blowfish.c    ****       0x4C98A0BE, 0x3278E964, 0x9F1F9532, 0xE0D392DF, 0xD3A0342B, 0x8971F21E,
 233:blowfish.c    ****       0x1B0A7441, 0x4BA3348C, 0xC5BE7120, 0xC37632D8, 0xDF359F8D, 0x9B992F2E,
 234:blowfish.c    ****       0xE60B6F47, 0x0FE3F11D, 0xE54CDA54, 0x1EDAD891, 0xCE6279CF, 0xCD3E7E6F,
 235:blowfish.c    ****       0x1618B166, 0xFD2C1D05, 0x848FD2C5, 0xF6FB2299, 0xF523F357, 0xA6327623,
 236:blowfish.c    ****       0x93A83531, 0x56CCCD02, 0xACF08162, 0x5A75EBB5, 0x6E163697, 0x88D273CC,
 237:blowfish.c    ****       0xDE966292, 0x81B949D0, 0x4C50901B, 0x71C65614, 0xE6C6C7BD, 0x327A140A,
 238:blowfish.c    ****       0x45E1D006, 0xC3F27B9A, 0xC9AA53FD, 0x62A80F00, 0xBB25BFE2, 0x35BDD2F6,
 239:blowfish.c    ****       0x71126905, 0xB2040222, 0xB6CBCF7C, 0xCD769C2B, 0x53113EC0, 0x1640E3D3,
 240:blowfish.c    ****       0x38ABBD60, 0x2547ADF0, 0xBA38209C, 0xF746CE76, 0x77AFA1C5, 0x20756060,
 241:blowfish.c    ****       0x85CBFE4E, 0x8AE88DD8, 0x7AAAF9B0, 0x4CF9AA7E, 0x1948C25C, 0x02FB8A8C,
 242:blowfish.c    ****       0x01C36AE4, 0xD6EBE1F9, 0x90D4F869, 0xA65CDEA0, 0x3F09252D, 0xC208E69F,
 243:blowfish.c    ****       0xB74E6132, 0xCE77E25B, 0x578FDFE3, 0x3AC372E6
 244:blowfish.c    ****     }
 245:blowfish.c    ****   },
 246:blowfish.c    ****   { /* ps */
 247:blowfish.c    ****     0x243F6A88, 0x85A308D3, 0x13198A2E, 0x03707344, 0xA4093822, 0x299F31D0,
 248:blowfish.c    ****     0x082EFA98, 0xEC4E6C89, 0x452821E6, 0x38D01377, 0xBE5466CF, 0x34E90C6C,
 249:blowfish.c    ****     0xC0AC29B7, 0xC97C50DD, 0x3F84D5B5, 0xB5470917, 0x9216D5D9, 0x8979FB1B
 250:blowfish.c    ****   }
 251:blowfish.c    **** };
 252:blowfish.c    **** 
 253:blowfish.c    **** /* It's unfortunate to have to pick the bytes apart in the round
 254:blowfish.c    ****  * function. Werner's gnupg/libgcrypt code took the address of x, and
 255:blowfish.c    ****  * then read the individual bytes depending on the endianness. But
 256:blowfish.c    ****  * since xr and xl ought to live in registers, copying via memory is a
 257:blowfish.c    ****  * bad idea. */
 258:blowfish.c    **** 
 259:blowfish.c    **** #define F(c, x) \
 260:blowfish.c    ****   ((( (c->s[0][(x>>24) &0xff] + c->s[1][(x>>16) & 0xff]) \
 261:blowfish.c    ****       ^ c->s[2][(x>>8) & 0xff]) + c->s[3][x & 0xff]) & 0xffffffff)
 262:blowfish.c    **** 
 263:blowfish.c    **** #define R(c, l,r,i)  do { l ^= c->p[i]; r ^= F(c,l); } while(0)
 264:blowfish.c    **** 
 265:blowfish.c    **** void
 266:blowfish.c    **** _nettle_blowfish_encround (const struct blowfish_ctx *ctx, uint32_t * ret_xl,
 267:blowfish.c    **** 	    uint32_t * ret_xr)
 268:blowfish.c    **** {
 1058              		.loc 1 268 1
 1059              		.cfi_startproc
 1060 0000 F30F1EFA 		endbr64
 1061 0004 55       		pushq	%rbp
 1062              		.cfi_def_cfa_offset 16
 1063              		.cfi_offset 6, -16
 1064 0005 4889E5   		movq	%rsp, %rbp
 1065              		.cfi_def_cfa_register 6
 1066 0008 48897DE8 		movq	%rdi, -24(%rbp)
 1067 000c 488975E0 		movq	%rsi, -32(%rbp)
 1068 0010 488955D8 		movq	%rdx, -40(%rbp)
 269:blowfish.c    ****   uint32_t xl, xr;
 270:blowfish.c    **** 
 271:blowfish.c    ****   xl = *ret_xl;
 1069              		.loc 1 271 6
 1070 0014 488B45E0 		movq	-32(%rbp), %rax
 1071 0018 8B00     		movl	(%rax), %eax
 1072 001a 8945F8   		movl	%eax, -8(%rbp)
 272:blowfish.c    ****   xr = *ret_xr;
 1073              		.loc 1 272 6
 1074 001d 488B45D8 		movq	-40(%rbp), %rax
 1075 0021 8B00     		movl	(%rax), %eax
 1076 0023 8945FC   		movl	%eax, -4(%rbp)
 273:blowfish.c    **** 
 274:blowfish.c    ****   R (ctx, xl, xr, 0);
 1077              		.loc 1 274 3
 1078 0026 488B45E8 		movq	-24(%rbp), %rax
 1079 002a 8B800010 		movl	4096(%rax), %eax
 1079      0000
 1080 0030 3145F8   		xorl	%eax, -8(%rbp)
 1081 0033 8B45F8   		movl	-8(%rbp), %eax
 1082 0036 C1E818   		shrl	$24, %eax
 1083 0039 89C2     		movl	%eax, %edx
 1084 003b 488B45E8 		movq	-24(%rbp), %rax
 1085 003f 89D2     		movl	%edx, %edx
 1086 0041 8B1490   		movl	(%rax,%rdx,4), %edx
 1087 0044 8B45F8   		movl	-8(%rbp), %eax
 1088 0047 C1E810   		shrl	$16, %eax
 1089 004a 0FB6C8   		movzbl	%al, %ecx
 1090 004d 488B45E8 		movq	-24(%rbp), %rax
 1091 0051 89C9     		movl	%ecx, %ecx
 1092 0053 4881C100 		addq	$256, %rcx
 1092      010000
 1093 005a 8B0488   		movl	(%rax,%rcx,4), %eax
 1094 005d 8D0C02   		leal	(%rdx,%rax), %ecx
 1095 0060 8B45F8   		movl	-8(%rbp), %eax
 1096 0063 C1E808   		shrl	$8, %eax
 1097 0066 0FB6D0   		movzbl	%al, %edx
 1098 0069 488B45E8 		movq	-24(%rbp), %rax
 1099 006d 89D2     		movl	%edx, %edx
 1100 006f 4881C200 		addq	$512, %rdx
 1100      020000
 1101 0076 8B0490   		movl	(%rax,%rdx,4), %eax
 1102 0079 31C1     		xorl	%eax, %ecx
 1103 007b 8B45F8   		movl	-8(%rbp), %eax
 1104 007e 0FB6D0   		movzbl	%al, %edx
 1105 0081 488B45E8 		movq	-24(%rbp), %rax
 1106 0085 89D2     		movl	%edx, %edx
 1107 0087 4881C200 		addq	$768, %rdx
 1107      030000
 1108 008e 8B0490   		movl	(%rax,%rdx,4), %eax
 1109 0091 01C8     		addl	%ecx, %eax
 1110 0093 3145FC   		xorl	%eax, -4(%rbp)
 275:blowfish.c    ****   R (ctx, xr, xl, 1);
 1111              		.loc 1 275 3
 1112 0096 488B45E8 		movq	-24(%rbp), %rax
 1113 009a 8B800410 		movl	4100(%rax), %eax
 1113      0000
 1114 00a0 3145FC   		xorl	%eax, -4(%rbp)
 1115 00a3 8B45FC   		movl	-4(%rbp), %eax
 1116 00a6 C1E818   		shrl	$24, %eax
 1117 00a9 89C2     		movl	%eax, %edx
 1118 00ab 488B45E8 		movq	-24(%rbp), %rax
 1119 00af 89D2     		movl	%edx, %edx
 1120 00b1 8B1490   		movl	(%rax,%rdx,4), %edx
 1121 00b4 8B45FC   		movl	-4(%rbp), %eax
 1122 00b7 C1E810   		shrl	$16, %eax
 1123 00ba 0FB6C8   		movzbl	%al, %ecx
 1124 00bd 488B45E8 		movq	-24(%rbp), %rax
 1125 00c1 89C9     		movl	%ecx, %ecx
 1126 00c3 4881C100 		addq	$256, %rcx
 1126      010000
 1127 00ca 8B0488   		movl	(%rax,%rcx,4), %eax
 1128 00cd 8D0C02   		leal	(%rdx,%rax), %ecx
 1129 00d0 8B45FC   		movl	-4(%rbp), %eax
 1130 00d3 C1E808   		shrl	$8, %eax
 1131 00d6 0FB6D0   		movzbl	%al, %edx
 1132 00d9 488B45E8 		movq	-24(%rbp), %rax
 1133 00dd 89D2     		movl	%edx, %edx
 1134 00df 4881C200 		addq	$512, %rdx
 1134      020000
 1135 00e6 8B0490   		movl	(%rax,%rdx,4), %eax
 1136 00e9 31C1     		xorl	%eax, %ecx
 1137 00eb 8B45FC   		movl	-4(%rbp), %eax
 1138 00ee 0FB6D0   		movzbl	%al, %edx
 1139 00f1 488B45E8 		movq	-24(%rbp), %rax
 1140 00f5 89D2     		movl	%edx, %edx
 1141 00f7 4881C200 		addq	$768, %rdx
 1141      030000
 1142 00fe 8B0490   		movl	(%rax,%rdx,4), %eax
 1143 0101 01C8     		addl	%ecx, %eax
 1144 0103 3145F8   		xorl	%eax, -8(%rbp)
 276:blowfish.c    ****   R (ctx, xl, xr, 2);
 1145              		.loc 1 276 3
 1146 0106 488B45E8 		movq	-24(%rbp), %rax
 1147 010a 8B800810 		movl	4104(%rax), %eax
 1147      0000
 1148 0110 3145F8   		xorl	%eax, -8(%rbp)
 1149 0113 8B45F8   		movl	-8(%rbp), %eax
 1150 0116 C1E818   		shrl	$24, %eax
 1151 0119 89C2     		movl	%eax, %edx
 1152 011b 488B45E8 		movq	-24(%rbp), %rax
 1153 011f 89D2     		movl	%edx, %edx
 1154 0121 8B1490   		movl	(%rax,%rdx,4), %edx
 1155 0124 8B45F8   		movl	-8(%rbp), %eax
 1156 0127 C1E810   		shrl	$16, %eax
 1157 012a 0FB6C8   		movzbl	%al, %ecx
 1158 012d 488B45E8 		movq	-24(%rbp), %rax
 1159 0131 89C9     		movl	%ecx, %ecx
 1160 0133 4881C100 		addq	$256, %rcx
 1160      010000
 1161 013a 8B0488   		movl	(%rax,%rcx,4), %eax
 1162 013d 8D0C02   		leal	(%rdx,%rax), %ecx
 1163 0140 8B45F8   		movl	-8(%rbp), %eax
 1164 0143 C1E808   		shrl	$8, %eax
 1165 0146 0FB6D0   		movzbl	%al, %edx
 1166 0149 488B45E8 		movq	-24(%rbp), %rax
 1167 014d 89D2     		movl	%edx, %edx
 1168 014f 4881C200 		addq	$512, %rdx
 1168      020000
 1169 0156 8B0490   		movl	(%rax,%rdx,4), %eax
 1170 0159 31C1     		xorl	%eax, %ecx
 1171 015b 8B45F8   		movl	-8(%rbp), %eax
 1172 015e 0FB6D0   		movzbl	%al, %edx
 1173 0161 488B45E8 		movq	-24(%rbp), %rax
 1174 0165 89D2     		movl	%edx, %edx
 1175 0167 4881C200 		addq	$768, %rdx
 1175      030000
 1176 016e 8B0490   		movl	(%rax,%rdx,4), %eax
 1177 0171 01C8     		addl	%ecx, %eax
 1178 0173 3145FC   		xorl	%eax, -4(%rbp)
 277:blowfish.c    ****   R (ctx, xr, xl, 3);
 1179              		.loc 1 277 3
 1180 0176 488B45E8 		movq	-24(%rbp), %rax
 1181 017a 8B800C10 		movl	4108(%rax), %eax
 1181      0000
 1182 0180 3145FC   		xorl	%eax, -4(%rbp)
 1183 0183 8B45FC   		movl	-4(%rbp), %eax
 1184 0186 C1E818   		shrl	$24, %eax
 1185 0189 89C2     		movl	%eax, %edx
 1186 018b 488B45E8 		movq	-24(%rbp), %rax
 1187 018f 89D2     		movl	%edx, %edx
 1188 0191 8B1490   		movl	(%rax,%rdx,4), %edx
 1189 0194 8B45FC   		movl	-4(%rbp), %eax
 1190 0197 C1E810   		shrl	$16, %eax
 1191 019a 0FB6C8   		movzbl	%al, %ecx
 1192 019d 488B45E8 		movq	-24(%rbp), %rax
 1193 01a1 89C9     		movl	%ecx, %ecx
 1194 01a3 4881C100 		addq	$256, %rcx
 1194      010000
 1195 01aa 8B0488   		movl	(%rax,%rcx,4), %eax
 1196 01ad 8D0C02   		leal	(%rdx,%rax), %ecx
 1197 01b0 8B45FC   		movl	-4(%rbp), %eax
 1198 01b3 C1E808   		shrl	$8, %eax
 1199 01b6 0FB6D0   		movzbl	%al, %edx
 1200 01b9 488B45E8 		movq	-24(%rbp), %rax
 1201 01bd 89D2     		movl	%edx, %edx
 1202 01bf 4881C200 		addq	$512, %rdx
 1202      020000
 1203 01c6 8B0490   		movl	(%rax,%rdx,4), %eax
 1204 01c9 31C1     		xorl	%eax, %ecx
 1205 01cb 8B45FC   		movl	-4(%rbp), %eax
 1206 01ce 0FB6D0   		movzbl	%al, %edx
 1207 01d1 488B45E8 		movq	-24(%rbp), %rax
 1208 01d5 89D2     		movl	%edx, %edx
 1209 01d7 4881C200 		addq	$768, %rdx
 1209      030000
 1210 01de 8B0490   		movl	(%rax,%rdx,4), %eax
 1211 01e1 01C8     		addl	%ecx, %eax
 1212 01e3 3145F8   		xorl	%eax, -8(%rbp)
 278:blowfish.c    ****   R (ctx, xl, xr, 4);
 1213              		.loc 1 278 3
 1214 01e6 488B45E8 		movq	-24(%rbp), %rax
 1215 01ea 8B801010 		movl	4112(%rax), %eax
 1215      0000
 1216 01f0 3145F8   		xorl	%eax, -8(%rbp)
 1217 01f3 8B45F8   		movl	-8(%rbp), %eax
 1218 01f6 C1E818   		shrl	$24, %eax
 1219 01f9 89C2     		movl	%eax, %edx
 1220 01fb 488B45E8 		movq	-24(%rbp), %rax
 1221 01ff 89D2     		movl	%edx, %edx
 1222 0201 8B1490   		movl	(%rax,%rdx,4), %edx
 1223 0204 8B45F8   		movl	-8(%rbp), %eax
 1224 0207 C1E810   		shrl	$16, %eax
 1225 020a 0FB6C8   		movzbl	%al, %ecx
 1226 020d 488B45E8 		movq	-24(%rbp), %rax
 1227 0211 89C9     		movl	%ecx, %ecx
 1228 0213 4881C100 		addq	$256, %rcx
 1228      010000
 1229 021a 8B0488   		movl	(%rax,%rcx,4), %eax
 1230 021d 8D0C02   		leal	(%rdx,%rax), %ecx
 1231 0220 8B45F8   		movl	-8(%rbp), %eax
 1232 0223 C1E808   		shrl	$8, %eax
 1233 0226 0FB6D0   		movzbl	%al, %edx
 1234 0229 488B45E8 		movq	-24(%rbp), %rax
 1235 022d 89D2     		movl	%edx, %edx
 1236 022f 4881C200 		addq	$512, %rdx
 1236      020000
 1237 0236 8B0490   		movl	(%rax,%rdx,4), %eax
 1238 0239 31C1     		xorl	%eax, %ecx
 1239 023b 8B45F8   		movl	-8(%rbp), %eax
 1240 023e 0FB6D0   		movzbl	%al, %edx
 1241 0241 488B45E8 		movq	-24(%rbp), %rax
 1242 0245 89D2     		movl	%edx, %edx
 1243 0247 4881C200 		addq	$768, %rdx
 1243      030000
 1244 024e 8B0490   		movl	(%rax,%rdx,4), %eax
 1245 0251 01C8     		addl	%ecx, %eax
 1246 0253 3145FC   		xorl	%eax, -4(%rbp)
 279:blowfish.c    ****   R (ctx, xr, xl, 5);
 1247              		.loc 1 279 3
 1248 0256 488B45E8 		movq	-24(%rbp), %rax
 1249 025a 8B801410 		movl	4116(%rax), %eax
 1249      0000
 1250 0260 3145FC   		xorl	%eax, -4(%rbp)
 1251 0263 8B45FC   		movl	-4(%rbp), %eax
 1252 0266 C1E818   		shrl	$24, %eax
 1253 0269 89C2     		movl	%eax, %edx
 1254 026b 488B45E8 		movq	-24(%rbp), %rax
 1255 026f 89D2     		movl	%edx, %edx
 1256 0271 8B1490   		movl	(%rax,%rdx,4), %edx
 1257 0274 8B45FC   		movl	-4(%rbp), %eax
 1258 0277 C1E810   		shrl	$16, %eax
 1259 027a 0FB6C8   		movzbl	%al, %ecx
 1260 027d 488B45E8 		movq	-24(%rbp), %rax
 1261 0281 89C9     		movl	%ecx, %ecx
 1262 0283 4881C100 		addq	$256, %rcx
 1262      010000
 1263 028a 8B0488   		movl	(%rax,%rcx,4), %eax
 1264 028d 8D0C02   		leal	(%rdx,%rax), %ecx
 1265 0290 8B45FC   		movl	-4(%rbp), %eax
 1266 0293 C1E808   		shrl	$8, %eax
 1267 0296 0FB6D0   		movzbl	%al, %edx
 1268 0299 488B45E8 		movq	-24(%rbp), %rax
 1269 029d 89D2     		movl	%edx, %edx
 1270 029f 4881C200 		addq	$512, %rdx
 1270      020000
 1271 02a6 8B0490   		movl	(%rax,%rdx,4), %eax
 1272 02a9 31C1     		xorl	%eax, %ecx
 1273 02ab 8B45FC   		movl	-4(%rbp), %eax
 1274 02ae 0FB6D0   		movzbl	%al, %edx
 1275 02b1 488B45E8 		movq	-24(%rbp), %rax
 1276 02b5 89D2     		movl	%edx, %edx
 1277 02b7 4881C200 		addq	$768, %rdx
 1277      030000
 1278 02be 8B0490   		movl	(%rax,%rdx,4), %eax
 1279 02c1 01C8     		addl	%ecx, %eax
 1280 02c3 3145F8   		xorl	%eax, -8(%rbp)
 280:blowfish.c    ****   R (ctx, xl, xr, 6);
 1281              		.loc 1 280 3
 1282 02c6 488B45E8 		movq	-24(%rbp), %rax
 1283 02ca 8B801810 		movl	4120(%rax), %eax
 1283      0000
 1284 02d0 3145F8   		xorl	%eax, -8(%rbp)
 1285 02d3 8B45F8   		movl	-8(%rbp), %eax
 1286 02d6 C1E818   		shrl	$24, %eax
 1287 02d9 89C2     		movl	%eax, %edx
 1288 02db 488B45E8 		movq	-24(%rbp), %rax
 1289 02df 89D2     		movl	%edx, %edx
 1290 02e1 8B1490   		movl	(%rax,%rdx,4), %edx
 1291 02e4 8B45F8   		movl	-8(%rbp), %eax
 1292 02e7 C1E810   		shrl	$16, %eax
 1293 02ea 0FB6C8   		movzbl	%al, %ecx
 1294 02ed 488B45E8 		movq	-24(%rbp), %rax
 1295 02f1 89C9     		movl	%ecx, %ecx
 1296 02f3 4881C100 		addq	$256, %rcx
 1296      010000
 1297 02fa 8B0488   		movl	(%rax,%rcx,4), %eax
 1298 02fd 8D0C02   		leal	(%rdx,%rax), %ecx
 1299 0300 8B45F8   		movl	-8(%rbp), %eax
 1300 0303 C1E808   		shrl	$8, %eax
 1301 0306 0FB6D0   		movzbl	%al, %edx
 1302 0309 488B45E8 		movq	-24(%rbp), %rax
 1303 030d 89D2     		movl	%edx, %edx
 1304 030f 4881C200 		addq	$512, %rdx
 1304      020000
 1305 0316 8B0490   		movl	(%rax,%rdx,4), %eax
 1306 0319 31C1     		xorl	%eax, %ecx
 1307 031b 8B45F8   		movl	-8(%rbp), %eax
 1308 031e 0FB6D0   		movzbl	%al, %edx
 1309 0321 488B45E8 		movq	-24(%rbp), %rax
 1310 0325 89D2     		movl	%edx, %edx
 1311 0327 4881C200 		addq	$768, %rdx
 1311      030000
 1312 032e 8B0490   		movl	(%rax,%rdx,4), %eax
 1313 0331 01C8     		addl	%ecx, %eax
 1314 0333 3145FC   		xorl	%eax, -4(%rbp)
 281:blowfish.c    ****   R (ctx, xr, xl, 7);
 1315              		.loc 1 281 3
 1316 0336 488B45E8 		movq	-24(%rbp), %rax
 1317 033a 8B801C10 		movl	4124(%rax), %eax
 1317      0000
 1318 0340 3145FC   		xorl	%eax, -4(%rbp)
 1319 0343 8B45FC   		movl	-4(%rbp), %eax
 1320 0346 C1E818   		shrl	$24, %eax
 1321 0349 89C2     		movl	%eax, %edx
 1322 034b 488B45E8 		movq	-24(%rbp), %rax
 1323 034f 89D2     		movl	%edx, %edx
 1324 0351 8B1490   		movl	(%rax,%rdx,4), %edx
 1325 0354 8B45FC   		movl	-4(%rbp), %eax
 1326 0357 C1E810   		shrl	$16, %eax
 1327 035a 0FB6C8   		movzbl	%al, %ecx
 1328 035d 488B45E8 		movq	-24(%rbp), %rax
 1329 0361 89C9     		movl	%ecx, %ecx
 1330 0363 4881C100 		addq	$256, %rcx
 1330      010000
 1331 036a 8B0488   		movl	(%rax,%rcx,4), %eax
 1332 036d 8D0C02   		leal	(%rdx,%rax), %ecx
 1333 0370 8B45FC   		movl	-4(%rbp), %eax
 1334 0373 C1E808   		shrl	$8, %eax
 1335 0376 0FB6D0   		movzbl	%al, %edx
 1336 0379 488B45E8 		movq	-24(%rbp), %rax
 1337 037d 89D2     		movl	%edx, %edx
 1338 037f 4881C200 		addq	$512, %rdx
 1338      020000
 1339 0386 8B0490   		movl	(%rax,%rdx,4), %eax
 1340 0389 31C1     		xorl	%eax, %ecx
 1341 038b 8B45FC   		movl	-4(%rbp), %eax
 1342 038e 0FB6D0   		movzbl	%al, %edx
 1343 0391 488B45E8 		movq	-24(%rbp), %rax
 1344 0395 89D2     		movl	%edx, %edx
 1345 0397 4881C200 		addq	$768, %rdx
 1345      030000
 1346 039e 8B0490   		movl	(%rax,%rdx,4), %eax
 1347 03a1 01C8     		addl	%ecx, %eax
 1348 03a3 3145F8   		xorl	%eax, -8(%rbp)
 282:blowfish.c    ****   R (ctx, xl, xr, 8);
 1349              		.loc 1 282 3
 1350 03a6 488B45E8 		movq	-24(%rbp), %rax
 1351 03aa 8B802010 		movl	4128(%rax), %eax
 1351      0000
 1352 03b0 3145F8   		xorl	%eax, -8(%rbp)
 1353 03b3 8B45F8   		movl	-8(%rbp), %eax
 1354 03b6 C1E818   		shrl	$24, %eax
 1355 03b9 89C2     		movl	%eax, %edx
 1356 03bb 488B45E8 		movq	-24(%rbp), %rax
 1357 03bf 89D2     		movl	%edx, %edx
 1358 03c1 8B1490   		movl	(%rax,%rdx,4), %edx
 1359 03c4 8B45F8   		movl	-8(%rbp), %eax
 1360 03c7 C1E810   		shrl	$16, %eax
 1361 03ca 0FB6C8   		movzbl	%al, %ecx
 1362 03cd 488B45E8 		movq	-24(%rbp), %rax
 1363 03d1 89C9     		movl	%ecx, %ecx
 1364 03d3 4881C100 		addq	$256, %rcx
 1364      010000
 1365 03da 8B0488   		movl	(%rax,%rcx,4), %eax
 1366 03dd 8D0C02   		leal	(%rdx,%rax), %ecx
 1367 03e0 8B45F8   		movl	-8(%rbp), %eax
 1368 03e3 C1E808   		shrl	$8, %eax
 1369 03e6 0FB6D0   		movzbl	%al, %edx
 1370 03e9 488B45E8 		movq	-24(%rbp), %rax
 1371 03ed 89D2     		movl	%edx, %edx
 1372 03ef 4881C200 		addq	$512, %rdx
 1372      020000
 1373 03f6 8B0490   		movl	(%rax,%rdx,4), %eax
 1374 03f9 31C1     		xorl	%eax, %ecx
 1375 03fb 8B45F8   		movl	-8(%rbp), %eax
 1376 03fe 0FB6D0   		movzbl	%al, %edx
 1377 0401 488B45E8 		movq	-24(%rbp), %rax
 1378 0405 89D2     		movl	%edx, %edx
 1379 0407 4881C200 		addq	$768, %rdx
 1379      030000
 1380 040e 8B0490   		movl	(%rax,%rdx,4), %eax
 1381 0411 01C8     		addl	%ecx, %eax
 1382 0413 3145FC   		xorl	%eax, -4(%rbp)
 283:blowfish.c    ****   R (ctx, xr, xl, 9);
 1383              		.loc 1 283 3
 1384 0416 488B45E8 		movq	-24(%rbp), %rax
 1385 041a 8B802410 		movl	4132(%rax), %eax
 1385      0000
 1386 0420 3145FC   		xorl	%eax, -4(%rbp)
 1387 0423 8B45FC   		movl	-4(%rbp), %eax
 1388 0426 C1E818   		shrl	$24, %eax
 1389 0429 89C2     		movl	%eax, %edx
 1390 042b 488B45E8 		movq	-24(%rbp), %rax
 1391 042f 89D2     		movl	%edx, %edx
 1392 0431 8B1490   		movl	(%rax,%rdx,4), %edx
 1393 0434 8B45FC   		movl	-4(%rbp), %eax
 1394 0437 C1E810   		shrl	$16, %eax
 1395 043a 0FB6C8   		movzbl	%al, %ecx
 1396 043d 488B45E8 		movq	-24(%rbp), %rax
 1397 0441 89C9     		movl	%ecx, %ecx
 1398 0443 4881C100 		addq	$256, %rcx
 1398      010000
 1399 044a 8B0488   		movl	(%rax,%rcx,4), %eax
 1400 044d 8D0C02   		leal	(%rdx,%rax), %ecx
 1401 0450 8B45FC   		movl	-4(%rbp), %eax
 1402 0453 C1E808   		shrl	$8, %eax
 1403 0456 0FB6D0   		movzbl	%al, %edx
 1404 0459 488B45E8 		movq	-24(%rbp), %rax
 1405 045d 89D2     		movl	%edx, %edx
 1406 045f 4881C200 		addq	$512, %rdx
 1406      020000
 1407 0466 8B0490   		movl	(%rax,%rdx,4), %eax
 1408 0469 31C1     		xorl	%eax, %ecx
 1409 046b 8B45FC   		movl	-4(%rbp), %eax
 1410 046e 0FB6D0   		movzbl	%al, %edx
 1411 0471 488B45E8 		movq	-24(%rbp), %rax
 1412 0475 89D2     		movl	%edx, %edx
 1413 0477 4881C200 		addq	$768, %rdx
 1413      030000
 1414 047e 8B0490   		movl	(%rax,%rdx,4), %eax
 1415 0481 01C8     		addl	%ecx, %eax
 1416 0483 3145F8   		xorl	%eax, -8(%rbp)
 284:blowfish.c    ****   R (ctx, xl, xr, 10);
 1417              		.loc 1 284 3
 1418 0486 488B45E8 		movq	-24(%rbp), %rax
 1419 048a 8B802810 		movl	4136(%rax), %eax
 1419      0000
 1420 0490 3145F8   		xorl	%eax, -8(%rbp)
 1421 0493 8B45F8   		movl	-8(%rbp), %eax
 1422 0496 C1E818   		shrl	$24, %eax
 1423 0499 89C2     		movl	%eax, %edx
 1424 049b 488B45E8 		movq	-24(%rbp), %rax
 1425 049f 89D2     		movl	%edx, %edx
 1426 04a1 8B1490   		movl	(%rax,%rdx,4), %edx
 1427 04a4 8B45F8   		movl	-8(%rbp), %eax
 1428 04a7 C1E810   		shrl	$16, %eax
 1429 04aa 0FB6C8   		movzbl	%al, %ecx
 1430 04ad 488B45E8 		movq	-24(%rbp), %rax
 1431 04b1 89C9     		movl	%ecx, %ecx
 1432 04b3 4881C100 		addq	$256, %rcx
 1432      010000
 1433 04ba 8B0488   		movl	(%rax,%rcx,4), %eax
 1434 04bd 8D0C02   		leal	(%rdx,%rax), %ecx
 1435 04c0 8B45F8   		movl	-8(%rbp), %eax
 1436 04c3 C1E808   		shrl	$8, %eax
 1437 04c6 0FB6D0   		movzbl	%al, %edx
 1438 04c9 488B45E8 		movq	-24(%rbp), %rax
 1439 04cd 89D2     		movl	%edx, %edx
 1440 04cf 4881C200 		addq	$512, %rdx
 1440      020000
 1441 04d6 8B0490   		movl	(%rax,%rdx,4), %eax
 1442 04d9 31C1     		xorl	%eax, %ecx
 1443 04db 8B45F8   		movl	-8(%rbp), %eax
 1444 04de 0FB6D0   		movzbl	%al, %edx
 1445 04e1 488B45E8 		movq	-24(%rbp), %rax
 1446 04e5 89D2     		movl	%edx, %edx
 1447 04e7 4881C200 		addq	$768, %rdx
 1447      030000
 1448 04ee 8B0490   		movl	(%rax,%rdx,4), %eax
 1449 04f1 01C8     		addl	%ecx, %eax
 1450 04f3 3145FC   		xorl	%eax, -4(%rbp)
 285:blowfish.c    ****   R (ctx, xr, xl, 11);
 1451              		.loc 1 285 3
 1452 04f6 488B45E8 		movq	-24(%rbp), %rax
 1453 04fa 8B802C10 		movl	4140(%rax), %eax
 1453      0000
 1454 0500 3145FC   		xorl	%eax, -4(%rbp)
 1455 0503 8B45FC   		movl	-4(%rbp), %eax
 1456 0506 C1E818   		shrl	$24, %eax
 1457 0509 89C2     		movl	%eax, %edx
 1458 050b 488B45E8 		movq	-24(%rbp), %rax
 1459 050f 89D2     		movl	%edx, %edx
 1460 0511 8B1490   		movl	(%rax,%rdx,4), %edx
 1461 0514 8B45FC   		movl	-4(%rbp), %eax
 1462 0517 C1E810   		shrl	$16, %eax
 1463 051a 0FB6C8   		movzbl	%al, %ecx
 1464 051d 488B45E8 		movq	-24(%rbp), %rax
 1465 0521 89C9     		movl	%ecx, %ecx
 1466 0523 4881C100 		addq	$256, %rcx
 1466      010000
 1467 052a 8B0488   		movl	(%rax,%rcx,4), %eax
 1468 052d 8D0C02   		leal	(%rdx,%rax), %ecx
 1469 0530 8B45FC   		movl	-4(%rbp), %eax
 1470 0533 C1E808   		shrl	$8, %eax
 1471 0536 0FB6D0   		movzbl	%al, %edx
 1472 0539 488B45E8 		movq	-24(%rbp), %rax
 1473 053d 89D2     		movl	%edx, %edx
 1474 053f 4881C200 		addq	$512, %rdx
 1474      020000
 1475 0546 8B0490   		movl	(%rax,%rdx,4), %eax
 1476 0549 31C1     		xorl	%eax, %ecx
 1477 054b 8B45FC   		movl	-4(%rbp), %eax
 1478 054e 0FB6D0   		movzbl	%al, %edx
 1479 0551 488B45E8 		movq	-24(%rbp), %rax
 1480 0555 89D2     		movl	%edx, %edx
 1481 0557 4881C200 		addq	$768, %rdx
 1481      030000
 1482 055e 8B0490   		movl	(%rax,%rdx,4), %eax
 1483 0561 01C8     		addl	%ecx, %eax
 1484 0563 3145F8   		xorl	%eax, -8(%rbp)
 286:blowfish.c    ****   R (ctx, xl, xr, 12);
 1485              		.loc 1 286 3
 1486 0566 488B45E8 		movq	-24(%rbp), %rax
 1487 056a 8B803010 		movl	4144(%rax), %eax
 1487      0000
 1488 0570 3145F8   		xorl	%eax, -8(%rbp)
 1489 0573 8B45F8   		movl	-8(%rbp), %eax
 1490 0576 C1E818   		shrl	$24, %eax
 1491 0579 89C2     		movl	%eax, %edx
 1492 057b 488B45E8 		movq	-24(%rbp), %rax
 1493 057f 89D2     		movl	%edx, %edx
 1494 0581 8B1490   		movl	(%rax,%rdx,4), %edx
 1495 0584 8B45F8   		movl	-8(%rbp), %eax
 1496 0587 C1E810   		shrl	$16, %eax
 1497 058a 0FB6C8   		movzbl	%al, %ecx
 1498 058d 488B45E8 		movq	-24(%rbp), %rax
 1499 0591 89C9     		movl	%ecx, %ecx
 1500 0593 4881C100 		addq	$256, %rcx
 1500      010000
 1501 059a 8B0488   		movl	(%rax,%rcx,4), %eax
 1502 059d 8D0C02   		leal	(%rdx,%rax), %ecx
 1503 05a0 8B45F8   		movl	-8(%rbp), %eax
 1504 05a3 C1E808   		shrl	$8, %eax
 1505 05a6 0FB6D0   		movzbl	%al, %edx
 1506 05a9 488B45E8 		movq	-24(%rbp), %rax
 1507 05ad 89D2     		movl	%edx, %edx
 1508 05af 4881C200 		addq	$512, %rdx
 1508      020000
 1509 05b6 8B0490   		movl	(%rax,%rdx,4), %eax
 1510 05b9 31C1     		xorl	%eax, %ecx
 1511 05bb 8B45F8   		movl	-8(%rbp), %eax
 1512 05be 0FB6D0   		movzbl	%al, %edx
 1513 05c1 488B45E8 		movq	-24(%rbp), %rax
 1514 05c5 89D2     		movl	%edx, %edx
 1515 05c7 4881C200 		addq	$768, %rdx
 1515      030000
 1516 05ce 8B0490   		movl	(%rax,%rdx,4), %eax
 1517 05d1 01C8     		addl	%ecx, %eax
 1518 05d3 3145FC   		xorl	%eax, -4(%rbp)
 287:blowfish.c    ****   R (ctx, xr, xl, 13);
 1519              		.loc 1 287 3
 1520 05d6 488B45E8 		movq	-24(%rbp), %rax
 1521 05da 8B803410 		movl	4148(%rax), %eax
 1521      0000
 1522 05e0 3145FC   		xorl	%eax, -4(%rbp)
 1523 05e3 8B45FC   		movl	-4(%rbp), %eax
 1524 05e6 C1E818   		shrl	$24, %eax
 1525 05e9 89C2     		movl	%eax, %edx
 1526 05eb 488B45E8 		movq	-24(%rbp), %rax
 1527 05ef 89D2     		movl	%edx, %edx
 1528 05f1 8B1490   		movl	(%rax,%rdx,4), %edx
 1529 05f4 8B45FC   		movl	-4(%rbp), %eax
 1530 05f7 C1E810   		shrl	$16, %eax
 1531 05fa 0FB6C8   		movzbl	%al, %ecx
 1532 05fd 488B45E8 		movq	-24(%rbp), %rax
 1533 0601 89C9     		movl	%ecx, %ecx
 1534 0603 4881C100 		addq	$256, %rcx
 1534      010000
 1535 060a 8B0488   		movl	(%rax,%rcx,4), %eax
 1536 060d 8D0C02   		leal	(%rdx,%rax), %ecx
 1537 0610 8B45FC   		movl	-4(%rbp), %eax
 1538 0613 C1E808   		shrl	$8, %eax
 1539 0616 0FB6D0   		movzbl	%al, %edx
 1540 0619 488B45E8 		movq	-24(%rbp), %rax
 1541 061d 89D2     		movl	%edx, %edx
 1542 061f 4881C200 		addq	$512, %rdx
 1542      020000
 1543 0626 8B0490   		movl	(%rax,%rdx,4), %eax
 1544 0629 31C1     		xorl	%eax, %ecx
 1545 062b 8B45FC   		movl	-4(%rbp), %eax
 1546 062e 0FB6D0   		movzbl	%al, %edx
 1547 0631 488B45E8 		movq	-24(%rbp), %rax
 1548 0635 89D2     		movl	%edx, %edx
 1549 0637 4881C200 		addq	$768, %rdx
 1549      030000
 1550 063e 8B0490   		movl	(%rax,%rdx,4), %eax
 1551 0641 01C8     		addl	%ecx, %eax
 1552 0643 3145F8   		xorl	%eax, -8(%rbp)
 288:blowfish.c    ****   R (ctx, xl, xr, 14);
 1553              		.loc 1 288 3
 1554 0646 488B45E8 		movq	-24(%rbp), %rax
 1555 064a 8B803810 		movl	4152(%rax), %eax
 1555      0000
 1556 0650 3145F8   		xorl	%eax, -8(%rbp)
 1557 0653 8B45F8   		movl	-8(%rbp), %eax
 1558 0656 C1E818   		shrl	$24, %eax
 1559 0659 89C2     		movl	%eax, %edx
 1560 065b 488B45E8 		movq	-24(%rbp), %rax
 1561 065f 89D2     		movl	%edx, %edx
 1562 0661 8B1490   		movl	(%rax,%rdx,4), %edx
 1563 0664 8B45F8   		movl	-8(%rbp), %eax
 1564 0667 C1E810   		shrl	$16, %eax
 1565 066a 0FB6C8   		movzbl	%al, %ecx
 1566 066d 488B45E8 		movq	-24(%rbp), %rax
 1567 0671 89C9     		movl	%ecx, %ecx
 1568 0673 4881C100 		addq	$256, %rcx
 1568      010000
 1569 067a 8B0488   		movl	(%rax,%rcx,4), %eax
 1570 067d 8D0C02   		leal	(%rdx,%rax), %ecx
 1571 0680 8B45F8   		movl	-8(%rbp), %eax
 1572 0683 C1E808   		shrl	$8, %eax
 1573 0686 0FB6D0   		movzbl	%al, %edx
 1574 0689 488B45E8 		movq	-24(%rbp), %rax
 1575 068d 89D2     		movl	%edx, %edx
 1576 068f 4881C200 		addq	$512, %rdx
 1576      020000
 1577 0696 8B0490   		movl	(%rax,%rdx,4), %eax
 1578 0699 31C1     		xorl	%eax, %ecx
 1579 069b 8B45F8   		movl	-8(%rbp), %eax
 1580 069e 0FB6D0   		movzbl	%al, %edx
 1581 06a1 488B45E8 		movq	-24(%rbp), %rax
 1582 06a5 89D2     		movl	%edx, %edx
 1583 06a7 4881C200 		addq	$768, %rdx
 1583      030000
 1584 06ae 8B0490   		movl	(%rax,%rdx,4), %eax
 1585 06b1 01C8     		addl	%ecx, %eax
 1586 06b3 3145FC   		xorl	%eax, -4(%rbp)
 289:blowfish.c    ****   R (ctx, xr, xl, 15);
 1587              		.loc 1 289 3
 1588 06b6 488B45E8 		movq	-24(%rbp), %rax
 1589 06ba 8B803C10 		movl	4156(%rax), %eax
 1589      0000
 1590 06c0 3145FC   		xorl	%eax, -4(%rbp)
 1591 06c3 8B45FC   		movl	-4(%rbp), %eax
 1592 06c6 C1E818   		shrl	$24, %eax
 1593 06c9 89C2     		movl	%eax, %edx
 1594 06cb 488B45E8 		movq	-24(%rbp), %rax
 1595 06cf 89D2     		movl	%edx, %edx
 1596 06d1 8B1490   		movl	(%rax,%rdx,4), %edx
 1597 06d4 8B45FC   		movl	-4(%rbp), %eax
 1598 06d7 C1E810   		shrl	$16, %eax
 1599 06da 0FB6C8   		movzbl	%al, %ecx
 1600 06dd 488B45E8 		movq	-24(%rbp), %rax
 1601 06e1 89C9     		movl	%ecx, %ecx
 1602 06e3 4881C100 		addq	$256, %rcx
 1602      010000
 1603 06ea 8B0488   		movl	(%rax,%rcx,4), %eax
 1604 06ed 8D0C02   		leal	(%rdx,%rax), %ecx
 1605 06f0 8B45FC   		movl	-4(%rbp), %eax
 1606 06f3 C1E808   		shrl	$8, %eax
 1607 06f6 0FB6D0   		movzbl	%al, %edx
 1608 06f9 488B45E8 		movq	-24(%rbp), %rax
 1609 06fd 89D2     		movl	%edx, %edx
 1610 06ff 4881C200 		addq	$512, %rdx
 1610      020000
 1611 0706 8B0490   		movl	(%rax,%rdx,4), %eax
 1612 0709 31C1     		xorl	%eax, %ecx
 1613 070b 8B45FC   		movl	-4(%rbp), %eax
 1614 070e 0FB6D0   		movzbl	%al, %edx
 1615 0711 488B45E8 		movq	-24(%rbp), %rax
 1616 0715 89D2     		movl	%edx, %edx
 1617 0717 4881C200 		addq	$768, %rdx
 1617      030000
 1618 071e 8B0490   		movl	(%rax,%rdx,4), %eax
 1619 0721 01C8     		addl	%ecx, %eax
 1620 0723 3145F8   		xorl	%eax, -8(%rbp)
 290:blowfish.c    **** 
 291:blowfish.c    ****   xl ^= ctx->p[_BLOWFISH_ROUNDS];
 1621              		.loc 1 291 15
 1622 0726 488B45E8 		movq	-24(%rbp), %rax
 1623 072a 8B804010 		movl	4160(%rax), %eax
 1623      0000
 1624              		.loc 1 291 6
 1625 0730 3145F8   		xorl	%eax, -8(%rbp)
 292:blowfish.c    ****   xr ^= ctx->p[_BLOWFISH_ROUNDS + 1];
 1626              		.loc 1 292 15
 1627 0733 488B45E8 		movq	-24(%rbp), %rax
 1628 0737 8B804410 		movl	4164(%rax), %eax
 1628      0000
 1629              		.loc 1 292 6
 1630 073d 3145FC   		xorl	%eax, -4(%rbp)
 293:blowfish.c    **** 
 294:blowfish.c    ****   *ret_xl = xr;
 1631              		.loc 1 294 11
 1632 0740 488B45E0 		movq	-32(%rbp), %rax
 1633 0744 8B55FC   		movl	-4(%rbp), %edx
 1634 0747 8910     		movl	%edx, (%rax)
 295:blowfish.c    ****   *ret_xr = xl;
 1635              		.loc 1 295 11
 1636 0749 488B45D8 		movq	-40(%rbp), %rax
 1637 074d 8B55F8   		movl	-8(%rbp), %edx
 1638 0750 8910     		movl	%edx, (%rax)
 296:blowfish.c    **** }
 1639              		.loc 1 296 1
 1640 0752 90       		nop
 1641 0753 5D       		popq	%rbp
 1642              		.cfi_def_cfa 7, 8
 1643 0754 C3       		ret
 1644              		.cfi_endproc
 1645              	.LFE0:
 1648              	decround:
 1649              	.LFB1:
 297:blowfish.c    **** 
 298:blowfish.c    **** static void
 299:blowfish.c    **** decround (const struct blowfish_ctx *ctx, uint32_t * ret_xl, uint32_t * ret_xr)
 300:blowfish.c    **** {
 1650              		.loc 1 300 1
 1651              		.cfi_startproc
 1652 0755 F30F1EFA 		endbr64
 1653 0759 55       		pushq	%rbp
 1654              		.cfi_def_cfa_offset 16
 1655              		.cfi_offset 6, -16
 1656 075a 4889E5   		movq	%rsp, %rbp
 1657              		.cfi_def_cfa_register 6
 1658 075d 48897DE8 		movq	%rdi, -24(%rbp)
 1659 0761 488975E0 		movq	%rsi, -32(%rbp)
 1660 0765 488955D8 		movq	%rdx, -40(%rbp)
 301:blowfish.c    ****   uint32_t xl, xr;
 302:blowfish.c    **** 
 303:blowfish.c    ****   xl = *ret_xl;
 1661              		.loc 1 303 6
 1662 0769 488B45E0 		movq	-32(%rbp), %rax
 1663 076d 8B00     		movl	(%rax), %eax
 1664 076f 8945F8   		movl	%eax, -8(%rbp)
 304:blowfish.c    ****   xr = *ret_xr;
 1665              		.loc 1 304 6
 1666 0772 488B45D8 		movq	-40(%rbp), %rax
 1667 0776 8B00     		movl	(%rax), %eax
 1668 0778 8945FC   		movl	%eax, -4(%rbp)
 305:blowfish.c    **** 
 306:blowfish.c    ****   R (ctx, xl, xr, 17);
 1669              		.loc 1 306 3
 1670 077b 488B45E8 		movq	-24(%rbp), %rax
 1671 077f 8B804410 		movl	4164(%rax), %eax
 1671      0000
 1672 0785 3145F8   		xorl	%eax, -8(%rbp)
 1673 0788 8B45F8   		movl	-8(%rbp), %eax
 1674 078b C1E818   		shrl	$24, %eax
 1675 078e 89C2     		movl	%eax, %edx
 1676 0790 488B45E8 		movq	-24(%rbp), %rax
 1677 0794 89D2     		movl	%edx, %edx
 1678 0796 8B1490   		movl	(%rax,%rdx,4), %edx
 1679 0799 8B45F8   		movl	-8(%rbp), %eax
 1680 079c C1E810   		shrl	$16, %eax
 1681 079f 0FB6C8   		movzbl	%al, %ecx
 1682 07a2 488B45E8 		movq	-24(%rbp), %rax
 1683 07a6 89C9     		movl	%ecx, %ecx
 1684 07a8 4881C100 		addq	$256, %rcx
 1684      010000
 1685 07af 8B0488   		movl	(%rax,%rcx,4), %eax
 1686 07b2 8D0C02   		leal	(%rdx,%rax), %ecx
 1687 07b5 8B45F8   		movl	-8(%rbp), %eax
 1688 07b8 C1E808   		shrl	$8, %eax
 1689 07bb 0FB6D0   		movzbl	%al, %edx
 1690 07be 488B45E8 		movq	-24(%rbp), %rax
 1691 07c2 89D2     		movl	%edx, %edx
 1692 07c4 4881C200 		addq	$512, %rdx
 1692      020000
 1693 07cb 8B0490   		movl	(%rax,%rdx,4), %eax
 1694 07ce 31C1     		xorl	%eax, %ecx
 1695 07d0 8B45F8   		movl	-8(%rbp), %eax
 1696 07d3 0FB6D0   		movzbl	%al, %edx
 1697 07d6 488B45E8 		movq	-24(%rbp), %rax
 1698 07da 89D2     		movl	%edx, %edx
 1699 07dc 4881C200 		addq	$768, %rdx
 1699      030000
 1700 07e3 8B0490   		movl	(%rax,%rdx,4), %eax
 1701 07e6 01C8     		addl	%ecx, %eax
 1702 07e8 3145FC   		xorl	%eax, -4(%rbp)
 307:blowfish.c    ****   R (ctx, xr, xl, 16);
 1703              		.loc 1 307 3
 1704 07eb 488B45E8 		movq	-24(%rbp), %rax
 1705 07ef 8B804010 		movl	4160(%rax), %eax
 1705      0000
 1706 07f5 3145FC   		xorl	%eax, -4(%rbp)
 1707 07f8 8B45FC   		movl	-4(%rbp), %eax
 1708 07fb C1E818   		shrl	$24, %eax
 1709 07fe 89C2     		movl	%eax, %edx
 1710 0800 488B45E8 		movq	-24(%rbp), %rax
 1711 0804 89D2     		movl	%edx, %edx
 1712 0806 8B1490   		movl	(%rax,%rdx,4), %edx
 1713 0809 8B45FC   		movl	-4(%rbp), %eax
 1714 080c C1E810   		shrl	$16, %eax
 1715 080f 0FB6C8   		movzbl	%al, %ecx
 1716 0812 488B45E8 		movq	-24(%rbp), %rax
 1717 0816 89C9     		movl	%ecx, %ecx
 1718 0818 4881C100 		addq	$256, %rcx
 1718      010000
 1719 081f 8B0488   		movl	(%rax,%rcx,4), %eax
 1720 0822 8D0C02   		leal	(%rdx,%rax), %ecx
 1721 0825 8B45FC   		movl	-4(%rbp), %eax
 1722 0828 C1E808   		shrl	$8, %eax
 1723 082b 0FB6D0   		movzbl	%al, %edx
 1724 082e 488B45E8 		movq	-24(%rbp), %rax
 1725 0832 89D2     		movl	%edx, %edx
 1726 0834 4881C200 		addq	$512, %rdx
 1726      020000
 1727 083b 8B0490   		movl	(%rax,%rdx,4), %eax
 1728 083e 31C1     		xorl	%eax, %ecx
 1729 0840 8B45FC   		movl	-4(%rbp), %eax
 1730 0843 0FB6D0   		movzbl	%al, %edx
 1731 0846 488B45E8 		movq	-24(%rbp), %rax
 1732 084a 89D2     		movl	%edx, %edx
 1733 084c 4881C200 		addq	$768, %rdx
 1733      030000
 1734 0853 8B0490   		movl	(%rax,%rdx,4), %eax
 1735 0856 01C8     		addl	%ecx, %eax
 1736 0858 3145F8   		xorl	%eax, -8(%rbp)
 308:blowfish.c    ****   R (ctx, xl, xr, 15);
 1737              		.loc 1 308 3
 1738 085b 488B45E8 		movq	-24(%rbp), %rax
 1739 085f 8B803C10 		movl	4156(%rax), %eax
 1739      0000
 1740 0865 3145F8   		xorl	%eax, -8(%rbp)
 1741 0868 8B45F8   		movl	-8(%rbp), %eax
 1742 086b C1E818   		shrl	$24, %eax
 1743 086e 89C2     		movl	%eax, %edx
 1744 0870 488B45E8 		movq	-24(%rbp), %rax
 1745 0874 89D2     		movl	%edx, %edx
 1746 0876 8B1490   		movl	(%rax,%rdx,4), %edx
 1747 0879 8B45F8   		movl	-8(%rbp), %eax
 1748 087c C1E810   		shrl	$16, %eax
 1749 087f 0FB6C8   		movzbl	%al, %ecx
 1750 0882 488B45E8 		movq	-24(%rbp), %rax
 1751 0886 89C9     		movl	%ecx, %ecx
 1752 0888 4881C100 		addq	$256, %rcx
 1752      010000
 1753 088f 8B0488   		movl	(%rax,%rcx,4), %eax
 1754 0892 8D0C02   		leal	(%rdx,%rax), %ecx
 1755 0895 8B45F8   		movl	-8(%rbp), %eax
 1756 0898 C1E808   		shrl	$8, %eax
 1757 089b 0FB6D0   		movzbl	%al, %edx
 1758 089e 488B45E8 		movq	-24(%rbp), %rax
 1759 08a2 89D2     		movl	%edx, %edx
 1760 08a4 4881C200 		addq	$512, %rdx
 1760      020000
 1761 08ab 8B0490   		movl	(%rax,%rdx,4), %eax
 1762 08ae 31C1     		xorl	%eax, %ecx
 1763 08b0 8B45F8   		movl	-8(%rbp), %eax
 1764 08b3 0FB6D0   		movzbl	%al, %edx
 1765 08b6 488B45E8 		movq	-24(%rbp), %rax
 1766 08ba 89D2     		movl	%edx, %edx
 1767 08bc 4881C200 		addq	$768, %rdx
 1767      030000
 1768 08c3 8B0490   		movl	(%rax,%rdx,4), %eax
 1769 08c6 01C8     		addl	%ecx, %eax
 1770 08c8 3145FC   		xorl	%eax, -4(%rbp)
 309:blowfish.c    ****   R (ctx, xr, xl, 14);
 1771              		.loc 1 309 3
 1772 08cb 488B45E8 		movq	-24(%rbp), %rax
 1773 08cf 8B803810 		movl	4152(%rax), %eax
 1773      0000
 1774 08d5 3145FC   		xorl	%eax, -4(%rbp)
 1775 08d8 8B45FC   		movl	-4(%rbp), %eax
 1776 08db C1E818   		shrl	$24, %eax
 1777 08de 89C2     		movl	%eax, %edx
 1778 08e0 488B45E8 		movq	-24(%rbp), %rax
 1779 08e4 89D2     		movl	%edx, %edx
 1780 08e6 8B1490   		movl	(%rax,%rdx,4), %edx
 1781 08e9 8B45FC   		movl	-4(%rbp), %eax
 1782 08ec C1E810   		shrl	$16, %eax
 1783 08ef 0FB6C8   		movzbl	%al, %ecx
 1784 08f2 488B45E8 		movq	-24(%rbp), %rax
 1785 08f6 89C9     		movl	%ecx, %ecx
 1786 08f8 4881C100 		addq	$256, %rcx
 1786      010000
 1787 08ff 8B0488   		movl	(%rax,%rcx,4), %eax
 1788 0902 8D0C02   		leal	(%rdx,%rax), %ecx
 1789 0905 8B45FC   		movl	-4(%rbp), %eax
 1790 0908 C1E808   		shrl	$8, %eax
 1791 090b 0FB6D0   		movzbl	%al, %edx
 1792 090e 488B45E8 		movq	-24(%rbp), %rax
 1793 0912 89D2     		movl	%edx, %edx
 1794 0914 4881C200 		addq	$512, %rdx
 1794      020000
 1795 091b 8B0490   		movl	(%rax,%rdx,4), %eax
 1796 091e 31C1     		xorl	%eax, %ecx
 1797 0920 8B45FC   		movl	-4(%rbp), %eax
 1798 0923 0FB6D0   		movzbl	%al, %edx
 1799 0926 488B45E8 		movq	-24(%rbp), %rax
 1800 092a 89D2     		movl	%edx, %edx
 1801 092c 4881C200 		addq	$768, %rdx
 1801      030000
 1802 0933 8B0490   		movl	(%rax,%rdx,4), %eax
 1803 0936 01C8     		addl	%ecx, %eax
 1804 0938 3145F8   		xorl	%eax, -8(%rbp)
 310:blowfish.c    ****   R (ctx, xl, xr, 13);
 1805              		.loc 1 310 3
 1806 093b 488B45E8 		movq	-24(%rbp), %rax
 1807 093f 8B803410 		movl	4148(%rax), %eax
 1807      0000
 1808 0945 3145F8   		xorl	%eax, -8(%rbp)
 1809 0948 8B45F8   		movl	-8(%rbp), %eax
 1810 094b C1E818   		shrl	$24, %eax
 1811 094e 89C2     		movl	%eax, %edx
 1812 0950 488B45E8 		movq	-24(%rbp), %rax
 1813 0954 89D2     		movl	%edx, %edx
 1814 0956 8B1490   		movl	(%rax,%rdx,4), %edx
 1815 0959 8B45F8   		movl	-8(%rbp), %eax
 1816 095c C1E810   		shrl	$16, %eax
 1817 095f 0FB6C8   		movzbl	%al, %ecx
 1818 0962 488B45E8 		movq	-24(%rbp), %rax
 1819 0966 89C9     		movl	%ecx, %ecx
 1820 0968 4881C100 		addq	$256, %rcx
 1820      010000
 1821 096f 8B0488   		movl	(%rax,%rcx,4), %eax
 1822 0972 8D0C02   		leal	(%rdx,%rax), %ecx
 1823 0975 8B45F8   		movl	-8(%rbp), %eax
 1824 0978 C1E808   		shrl	$8, %eax
 1825 097b 0FB6D0   		movzbl	%al, %edx
 1826 097e 488B45E8 		movq	-24(%rbp), %rax
 1827 0982 89D2     		movl	%edx, %edx
 1828 0984 4881C200 		addq	$512, %rdx
 1828      020000
 1829 098b 8B0490   		movl	(%rax,%rdx,4), %eax
 1830 098e 31C1     		xorl	%eax, %ecx
 1831 0990 8B45F8   		movl	-8(%rbp), %eax
 1832 0993 0FB6D0   		movzbl	%al, %edx
 1833 0996 488B45E8 		movq	-24(%rbp), %rax
 1834 099a 89D2     		movl	%edx, %edx
 1835 099c 4881C200 		addq	$768, %rdx
 1835      030000
 1836 09a3 8B0490   		movl	(%rax,%rdx,4), %eax
 1837 09a6 01C8     		addl	%ecx, %eax
 1838 09a8 3145FC   		xorl	%eax, -4(%rbp)
 311:blowfish.c    ****   R (ctx, xr, xl, 12);
 1839              		.loc 1 311 3
 1840 09ab 488B45E8 		movq	-24(%rbp), %rax
 1841 09af 8B803010 		movl	4144(%rax), %eax
 1841      0000
 1842 09b5 3145FC   		xorl	%eax, -4(%rbp)
 1843 09b8 8B45FC   		movl	-4(%rbp), %eax
 1844 09bb C1E818   		shrl	$24, %eax
 1845 09be 89C2     		movl	%eax, %edx
 1846 09c0 488B45E8 		movq	-24(%rbp), %rax
 1847 09c4 89D2     		movl	%edx, %edx
 1848 09c6 8B1490   		movl	(%rax,%rdx,4), %edx
 1849 09c9 8B45FC   		movl	-4(%rbp), %eax
 1850 09cc C1E810   		shrl	$16, %eax
 1851 09cf 0FB6C8   		movzbl	%al, %ecx
 1852 09d2 488B45E8 		movq	-24(%rbp), %rax
 1853 09d6 89C9     		movl	%ecx, %ecx
 1854 09d8 4881C100 		addq	$256, %rcx
 1854      010000
 1855 09df 8B0488   		movl	(%rax,%rcx,4), %eax
 1856 09e2 8D0C02   		leal	(%rdx,%rax), %ecx
 1857 09e5 8B45FC   		movl	-4(%rbp), %eax
 1858 09e8 C1E808   		shrl	$8, %eax
 1859 09eb 0FB6D0   		movzbl	%al, %edx
 1860 09ee 488B45E8 		movq	-24(%rbp), %rax
 1861 09f2 89D2     		movl	%edx, %edx
 1862 09f4 4881C200 		addq	$512, %rdx
 1862      020000
 1863 09fb 8B0490   		movl	(%rax,%rdx,4), %eax
 1864 09fe 31C1     		xorl	%eax, %ecx
 1865 0a00 8B45FC   		movl	-4(%rbp), %eax
 1866 0a03 0FB6D0   		movzbl	%al, %edx
 1867 0a06 488B45E8 		movq	-24(%rbp), %rax
 1868 0a0a 89D2     		movl	%edx, %edx
 1869 0a0c 4881C200 		addq	$768, %rdx
 1869      030000
 1870 0a13 8B0490   		movl	(%rax,%rdx,4), %eax
 1871 0a16 01C8     		addl	%ecx, %eax
 1872 0a18 3145F8   		xorl	%eax, -8(%rbp)
 312:blowfish.c    ****   R (ctx, xl, xr, 11);
 1873              		.loc 1 312 3
 1874 0a1b 488B45E8 		movq	-24(%rbp), %rax
 1875 0a1f 8B802C10 		movl	4140(%rax), %eax
 1875      0000
 1876 0a25 3145F8   		xorl	%eax, -8(%rbp)
 1877 0a28 8B45F8   		movl	-8(%rbp), %eax
 1878 0a2b C1E818   		shrl	$24, %eax
 1879 0a2e 89C2     		movl	%eax, %edx
 1880 0a30 488B45E8 		movq	-24(%rbp), %rax
 1881 0a34 89D2     		movl	%edx, %edx
 1882 0a36 8B1490   		movl	(%rax,%rdx,4), %edx
 1883 0a39 8B45F8   		movl	-8(%rbp), %eax
 1884 0a3c C1E810   		shrl	$16, %eax
 1885 0a3f 0FB6C8   		movzbl	%al, %ecx
 1886 0a42 488B45E8 		movq	-24(%rbp), %rax
 1887 0a46 89C9     		movl	%ecx, %ecx
 1888 0a48 4881C100 		addq	$256, %rcx
 1888      010000
 1889 0a4f 8B0488   		movl	(%rax,%rcx,4), %eax
 1890 0a52 8D0C02   		leal	(%rdx,%rax), %ecx
 1891 0a55 8B45F8   		movl	-8(%rbp), %eax
 1892 0a58 C1E808   		shrl	$8, %eax
 1893 0a5b 0FB6D0   		movzbl	%al, %edx
 1894 0a5e 488B45E8 		movq	-24(%rbp), %rax
 1895 0a62 89D2     		movl	%edx, %edx
 1896 0a64 4881C200 		addq	$512, %rdx
 1896      020000
 1897 0a6b 8B0490   		movl	(%rax,%rdx,4), %eax
 1898 0a6e 31C1     		xorl	%eax, %ecx
 1899 0a70 8B45F8   		movl	-8(%rbp), %eax
 1900 0a73 0FB6D0   		movzbl	%al, %edx
 1901 0a76 488B45E8 		movq	-24(%rbp), %rax
 1902 0a7a 89D2     		movl	%edx, %edx
 1903 0a7c 4881C200 		addq	$768, %rdx
 1903      030000
 1904 0a83 8B0490   		movl	(%rax,%rdx,4), %eax
 1905 0a86 01C8     		addl	%ecx, %eax
 1906 0a88 3145FC   		xorl	%eax, -4(%rbp)
 313:blowfish.c    ****   R (ctx, xr, xl, 10);
 1907              		.loc 1 313 3
 1908 0a8b 488B45E8 		movq	-24(%rbp), %rax
 1909 0a8f 8B802810 		movl	4136(%rax), %eax
 1909      0000
 1910 0a95 3145FC   		xorl	%eax, -4(%rbp)
 1911 0a98 8B45FC   		movl	-4(%rbp), %eax
 1912 0a9b C1E818   		shrl	$24, %eax
 1913 0a9e 89C2     		movl	%eax, %edx
 1914 0aa0 488B45E8 		movq	-24(%rbp), %rax
 1915 0aa4 89D2     		movl	%edx, %edx
 1916 0aa6 8B1490   		movl	(%rax,%rdx,4), %edx
 1917 0aa9 8B45FC   		movl	-4(%rbp), %eax
 1918 0aac C1E810   		shrl	$16, %eax
 1919 0aaf 0FB6C8   		movzbl	%al, %ecx
 1920 0ab2 488B45E8 		movq	-24(%rbp), %rax
 1921 0ab6 89C9     		movl	%ecx, %ecx
 1922 0ab8 4881C100 		addq	$256, %rcx
 1922      010000
 1923 0abf 8B0488   		movl	(%rax,%rcx,4), %eax
 1924 0ac2 8D0C02   		leal	(%rdx,%rax), %ecx
 1925 0ac5 8B45FC   		movl	-4(%rbp), %eax
 1926 0ac8 C1E808   		shrl	$8, %eax
 1927 0acb 0FB6D0   		movzbl	%al, %edx
 1928 0ace 488B45E8 		movq	-24(%rbp), %rax
 1929 0ad2 89D2     		movl	%edx, %edx
 1930 0ad4 4881C200 		addq	$512, %rdx
 1930      020000
 1931 0adb 8B0490   		movl	(%rax,%rdx,4), %eax
 1932 0ade 31C1     		xorl	%eax, %ecx
 1933 0ae0 8B45FC   		movl	-4(%rbp), %eax
 1934 0ae3 0FB6D0   		movzbl	%al, %edx
 1935 0ae6 488B45E8 		movq	-24(%rbp), %rax
 1936 0aea 89D2     		movl	%edx, %edx
 1937 0aec 4881C200 		addq	$768, %rdx
 1937      030000
 1938 0af3 8B0490   		movl	(%rax,%rdx,4), %eax
 1939 0af6 01C8     		addl	%ecx, %eax
 1940 0af8 3145F8   		xorl	%eax, -8(%rbp)
 314:blowfish.c    ****   R (ctx, xl, xr, 9);
 1941              		.loc 1 314 3
 1942 0afb 488B45E8 		movq	-24(%rbp), %rax
 1943 0aff 8B802410 		movl	4132(%rax), %eax
 1943      0000
 1944 0b05 3145F8   		xorl	%eax, -8(%rbp)
 1945 0b08 8B45F8   		movl	-8(%rbp), %eax
 1946 0b0b C1E818   		shrl	$24, %eax
 1947 0b0e 89C2     		movl	%eax, %edx
 1948 0b10 488B45E8 		movq	-24(%rbp), %rax
 1949 0b14 89D2     		movl	%edx, %edx
 1950 0b16 8B1490   		movl	(%rax,%rdx,4), %edx
 1951 0b19 8B45F8   		movl	-8(%rbp), %eax
 1952 0b1c C1E810   		shrl	$16, %eax
 1953 0b1f 0FB6C8   		movzbl	%al, %ecx
 1954 0b22 488B45E8 		movq	-24(%rbp), %rax
 1955 0b26 89C9     		movl	%ecx, %ecx
 1956 0b28 4881C100 		addq	$256, %rcx
 1956      010000
 1957 0b2f 8B0488   		movl	(%rax,%rcx,4), %eax
 1958 0b32 8D0C02   		leal	(%rdx,%rax), %ecx
 1959 0b35 8B45F8   		movl	-8(%rbp), %eax
 1960 0b38 C1E808   		shrl	$8, %eax
 1961 0b3b 0FB6D0   		movzbl	%al, %edx
 1962 0b3e 488B45E8 		movq	-24(%rbp), %rax
 1963 0b42 89D2     		movl	%edx, %edx
 1964 0b44 4881C200 		addq	$512, %rdx
 1964      020000
 1965 0b4b 8B0490   		movl	(%rax,%rdx,4), %eax
 1966 0b4e 31C1     		xorl	%eax, %ecx
 1967 0b50 8B45F8   		movl	-8(%rbp), %eax
 1968 0b53 0FB6D0   		movzbl	%al, %edx
 1969 0b56 488B45E8 		movq	-24(%rbp), %rax
 1970 0b5a 89D2     		movl	%edx, %edx
 1971 0b5c 4881C200 		addq	$768, %rdx
 1971      030000
 1972 0b63 8B0490   		movl	(%rax,%rdx,4), %eax
 1973 0b66 01C8     		addl	%ecx, %eax
 1974 0b68 3145FC   		xorl	%eax, -4(%rbp)
 315:blowfish.c    ****   R (ctx, xr, xl, 8);
 1975              		.loc 1 315 3
 1976 0b6b 488B45E8 		movq	-24(%rbp), %rax
 1977 0b6f 8B802010 		movl	4128(%rax), %eax
 1977      0000
 1978 0b75 3145FC   		xorl	%eax, -4(%rbp)
 1979 0b78 8B45FC   		movl	-4(%rbp), %eax
 1980 0b7b C1E818   		shrl	$24, %eax
 1981 0b7e 89C2     		movl	%eax, %edx
 1982 0b80 488B45E8 		movq	-24(%rbp), %rax
 1983 0b84 89D2     		movl	%edx, %edx
 1984 0b86 8B1490   		movl	(%rax,%rdx,4), %edx
 1985 0b89 8B45FC   		movl	-4(%rbp), %eax
 1986 0b8c C1E810   		shrl	$16, %eax
 1987 0b8f 0FB6C8   		movzbl	%al, %ecx
 1988 0b92 488B45E8 		movq	-24(%rbp), %rax
 1989 0b96 89C9     		movl	%ecx, %ecx
 1990 0b98 4881C100 		addq	$256, %rcx
 1990      010000
 1991 0b9f 8B0488   		movl	(%rax,%rcx,4), %eax
 1992 0ba2 8D0C02   		leal	(%rdx,%rax), %ecx
 1993 0ba5 8B45FC   		movl	-4(%rbp), %eax
 1994 0ba8 C1E808   		shrl	$8, %eax
 1995 0bab 0FB6D0   		movzbl	%al, %edx
 1996 0bae 488B45E8 		movq	-24(%rbp), %rax
 1997 0bb2 89D2     		movl	%edx, %edx
 1998 0bb4 4881C200 		addq	$512, %rdx
 1998      020000
 1999 0bbb 8B0490   		movl	(%rax,%rdx,4), %eax
 2000 0bbe 31C1     		xorl	%eax, %ecx
 2001 0bc0 8B45FC   		movl	-4(%rbp), %eax
 2002 0bc3 0FB6D0   		movzbl	%al, %edx
 2003 0bc6 488B45E8 		movq	-24(%rbp), %rax
 2004 0bca 89D2     		movl	%edx, %edx
 2005 0bcc 4881C200 		addq	$768, %rdx
 2005      030000
 2006 0bd3 8B0490   		movl	(%rax,%rdx,4), %eax
 2007 0bd6 01C8     		addl	%ecx, %eax
 2008 0bd8 3145F8   		xorl	%eax, -8(%rbp)
 316:blowfish.c    ****   R (ctx, xl, xr, 7);
 2009              		.loc 1 316 3
 2010 0bdb 488B45E8 		movq	-24(%rbp), %rax
 2011 0bdf 8B801C10 		movl	4124(%rax), %eax
 2011      0000
 2012 0be5 3145F8   		xorl	%eax, -8(%rbp)
 2013 0be8 8B45F8   		movl	-8(%rbp), %eax
 2014 0beb C1E818   		shrl	$24, %eax
 2015 0bee 89C2     		movl	%eax, %edx
 2016 0bf0 488B45E8 		movq	-24(%rbp), %rax
 2017 0bf4 89D2     		movl	%edx, %edx
 2018 0bf6 8B1490   		movl	(%rax,%rdx,4), %edx
 2019 0bf9 8B45F8   		movl	-8(%rbp), %eax
 2020 0bfc C1E810   		shrl	$16, %eax
 2021 0bff 0FB6C8   		movzbl	%al, %ecx
 2022 0c02 488B45E8 		movq	-24(%rbp), %rax
 2023 0c06 89C9     		movl	%ecx, %ecx
 2024 0c08 4881C100 		addq	$256, %rcx
 2024      010000
 2025 0c0f 8B0488   		movl	(%rax,%rcx,4), %eax
 2026 0c12 8D0C02   		leal	(%rdx,%rax), %ecx
 2027 0c15 8B45F8   		movl	-8(%rbp), %eax
 2028 0c18 C1E808   		shrl	$8, %eax
 2029 0c1b 0FB6D0   		movzbl	%al, %edx
 2030 0c1e 488B45E8 		movq	-24(%rbp), %rax
 2031 0c22 89D2     		movl	%edx, %edx
 2032 0c24 4881C200 		addq	$512, %rdx
 2032      020000
 2033 0c2b 8B0490   		movl	(%rax,%rdx,4), %eax
 2034 0c2e 31C1     		xorl	%eax, %ecx
 2035 0c30 8B45F8   		movl	-8(%rbp), %eax
 2036 0c33 0FB6D0   		movzbl	%al, %edx
 2037 0c36 488B45E8 		movq	-24(%rbp), %rax
 2038 0c3a 89D2     		movl	%edx, %edx
 2039 0c3c 4881C200 		addq	$768, %rdx
 2039      030000
 2040 0c43 8B0490   		movl	(%rax,%rdx,4), %eax
 2041 0c46 01C8     		addl	%ecx, %eax
 2042 0c48 3145FC   		xorl	%eax, -4(%rbp)
 317:blowfish.c    ****   R (ctx, xr, xl, 6);
 2043              		.loc 1 317 3
 2044 0c4b 488B45E8 		movq	-24(%rbp), %rax
 2045 0c4f 8B801810 		movl	4120(%rax), %eax
 2045      0000
 2046 0c55 3145FC   		xorl	%eax, -4(%rbp)
 2047 0c58 8B45FC   		movl	-4(%rbp), %eax
 2048 0c5b C1E818   		shrl	$24, %eax
 2049 0c5e 89C2     		movl	%eax, %edx
 2050 0c60 488B45E8 		movq	-24(%rbp), %rax
 2051 0c64 89D2     		movl	%edx, %edx
 2052 0c66 8B1490   		movl	(%rax,%rdx,4), %edx
 2053 0c69 8B45FC   		movl	-4(%rbp), %eax
 2054 0c6c C1E810   		shrl	$16, %eax
 2055 0c6f 0FB6C8   		movzbl	%al, %ecx
 2056 0c72 488B45E8 		movq	-24(%rbp), %rax
 2057 0c76 89C9     		movl	%ecx, %ecx
 2058 0c78 4881C100 		addq	$256, %rcx
 2058      010000
 2059 0c7f 8B0488   		movl	(%rax,%rcx,4), %eax
 2060 0c82 8D0C02   		leal	(%rdx,%rax), %ecx
 2061 0c85 8B45FC   		movl	-4(%rbp), %eax
 2062 0c88 C1E808   		shrl	$8, %eax
 2063 0c8b 0FB6D0   		movzbl	%al, %edx
 2064 0c8e 488B45E8 		movq	-24(%rbp), %rax
 2065 0c92 89D2     		movl	%edx, %edx
 2066 0c94 4881C200 		addq	$512, %rdx
 2066      020000
 2067 0c9b 8B0490   		movl	(%rax,%rdx,4), %eax
 2068 0c9e 31C1     		xorl	%eax, %ecx
 2069 0ca0 8B45FC   		movl	-4(%rbp), %eax
 2070 0ca3 0FB6D0   		movzbl	%al, %edx
 2071 0ca6 488B45E8 		movq	-24(%rbp), %rax
 2072 0caa 89D2     		movl	%edx, %edx
 2073 0cac 4881C200 		addq	$768, %rdx
 2073      030000
 2074 0cb3 8B0490   		movl	(%rax,%rdx,4), %eax
 2075 0cb6 01C8     		addl	%ecx, %eax
 2076 0cb8 3145F8   		xorl	%eax, -8(%rbp)
 318:blowfish.c    ****   R (ctx, xl, xr, 5);
 2077              		.loc 1 318 3
 2078 0cbb 488B45E8 		movq	-24(%rbp), %rax
 2079 0cbf 8B801410 		movl	4116(%rax), %eax
 2079      0000
 2080 0cc5 3145F8   		xorl	%eax, -8(%rbp)
 2081 0cc8 8B45F8   		movl	-8(%rbp), %eax
 2082 0ccb C1E818   		shrl	$24, %eax
 2083 0cce 89C2     		movl	%eax, %edx
 2084 0cd0 488B45E8 		movq	-24(%rbp), %rax
 2085 0cd4 89D2     		movl	%edx, %edx
 2086 0cd6 8B1490   		movl	(%rax,%rdx,4), %edx
 2087 0cd9 8B45F8   		movl	-8(%rbp), %eax
 2088 0cdc C1E810   		shrl	$16, %eax
 2089 0cdf 0FB6C8   		movzbl	%al, %ecx
 2090 0ce2 488B45E8 		movq	-24(%rbp), %rax
 2091 0ce6 89C9     		movl	%ecx, %ecx
 2092 0ce8 4881C100 		addq	$256, %rcx
 2092      010000
 2093 0cef 8B0488   		movl	(%rax,%rcx,4), %eax
 2094 0cf2 8D0C02   		leal	(%rdx,%rax), %ecx
 2095 0cf5 8B45F8   		movl	-8(%rbp), %eax
 2096 0cf8 C1E808   		shrl	$8, %eax
 2097 0cfb 0FB6D0   		movzbl	%al, %edx
 2098 0cfe 488B45E8 		movq	-24(%rbp), %rax
 2099 0d02 89D2     		movl	%edx, %edx
 2100 0d04 4881C200 		addq	$512, %rdx
 2100      020000
 2101 0d0b 8B0490   		movl	(%rax,%rdx,4), %eax
 2102 0d0e 31C1     		xorl	%eax, %ecx
 2103 0d10 8B45F8   		movl	-8(%rbp), %eax
 2104 0d13 0FB6D0   		movzbl	%al, %edx
 2105 0d16 488B45E8 		movq	-24(%rbp), %rax
 2106 0d1a 89D2     		movl	%edx, %edx
 2107 0d1c 4881C200 		addq	$768, %rdx
 2107      030000
 2108 0d23 8B0490   		movl	(%rax,%rdx,4), %eax
 2109 0d26 01C8     		addl	%ecx, %eax
 2110 0d28 3145FC   		xorl	%eax, -4(%rbp)
 319:blowfish.c    ****   R (ctx, xr, xl, 4);
 2111              		.loc 1 319 3
 2112 0d2b 488B45E8 		movq	-24(%rbp), %rax
 2113 0d2f 8B801010 		movl	4112(%rax), %eax
 2113      0000
 2114 0d35 3145FC   		xorl	%eax, -4(%rbp)
 2115 0d38 8B45FC   		movl	-4(%rbp), %eax
 2116 0d3b C1E818   		shrl	$24, %eax
 2117 0d3e 89C2     		movl	%eax, %edx
 2118 0d40 488B45E8 		movq	-24(%rbp), %rax
 2119 0d44 89D2     		movl	%edx, %edx
 2120 0d46 8B1490   		movl	(%rax,%rdx,4), %edx
 2121 0d49 8B45FC   		movl	-4(%rbp), %eax
 2122 0d4c C1E810   		shrl	$16, %eax
 2123 0d4f 0FB6C8   		movzbl	%al, %ecx
 2124 0d52 488B45E8 		movq	-24(%rbp), %rax
 2125 0d56 89C9     		movl	%ecx, %ecx
 2126 0d58 4881C100 		addq	$256, %rcx
 2126      010000
 2127 0d5f 8B0488   		movl	(%rax,%rcx,4), %eax
 2128 0d62 8D0C02   		leal	(%rdx,%rax), %ecx
 2129 0d65 8B45FC   		movl	-4(%rbp), %eax
 2130 0d68 C1E808   		shrl	$8, %eax
 2131 0d6b 0FB6D0   		movzbl	%al, %edx
 2132 0d6e 488B45E8 		movq	-24(%rbp), %rax
 2133 0d72 89D2     		movl	%edx, %edx
 2134 0d74 4881C200 		addq	$512, %rdx
 2134      020000
 2135 0d7b 8B0490   		movl	(%rax,%rdx,4), %eax
 2136 0d7e 31C1     		xorl	%eax, %ecx
 2137 0d80 8B45FC   		movl	-4(%rbp), %eax
 2138 0d83 0FB6D0   		movzbl	%al, %edx
 2139 0d86 488B45E8 		movq	-24(%rbp), %rax
 2140 0d8a 89D2     		movl	%edx, %edx
 2141 0d8c 4881C200 		addq	$768, %rdx
 2141      030000
 2142 0d93 8B0490   		movl	(%rax,%rdx,4), %eax
 2143 0d96 01C8     		addl	%ecx, %eax
 2144 0d98 3145F8   		xorl	%eax, -8(%rbp)
 320:blowfish.c    ****   R (ctx, xl, xr, 3);
 2145              		.loc 1 320 3
 2146 0d9b 488B45E8 		movq	-24(%rbp), %rax
 2147 0d9f 8B800C10 		movl	4108(%rax), %eax
 2147      0000
 2148 0da5 3145F8   		xorl	%eax, -8(%rbp)
 2149 0da8 8B45F8   		movl	-8(%rbp), %eax
 2150 0dab C1E818   		shrl	$24, %eax
 2151 0dae 89C2     		movl	%eax, %edx
 2152 0db0 488B45E8 		movq	-24(%rbp), %rax
 2153 0db4 89D2     		movl	%edx, %edx
 2154 0db6 8B1490   		movl	(%rax,%rdx,4), %edx
 2155 0db9 8B45F8   		movl	-8(%rbp), %eax
 2156 0dbc C1E810   		shrl	$16, %eax
 2157 0dbf 0FB6C8   		movzbl	%al, %ecx
 2158 0dc2 488B45E8 		movq	-24(%rbp), %rax
 2159 0dc6 89C9     		movl	%ecx, %ecx
 2160 0dc8 4881C100 		addq	$256, %rcx
 2160      010000
 2161 0dcf 8B0488   		movl	(%rax,%rcx,4), %eax
 2162 0dd2 8D0C02   		leal	(%rdx,%rax), %ecx
 2163 0dd5 8B45F8   		movl	-8(%rbp), %eax
 2164 0dd8 C1E808   		shrl	$8, %eax
 2165 0ddb 0FB6D0   		movzbl	%al, %edx
 2166 0dde 488B45E8 		movq	-24(%rbp), %rax
 2167 0de2 89D2     		movl	%edx, %edx
 2168 0de4 4881C200 		addq	$512, %rdx
 2168      020000
 2169 0deb 8B0490   		movl	(%rax,%rdx,4), %eax
 2170 0dee 31C1     		xorl	%eax, %ecx
 2171 0df0 8B45F8   		movl	-8(%rbp), %eax
 2172 0df3 0FB6D0   		movzbl	%al, %edx
 2173 0df6 488B45E8 		movq	-24(%rbp), %rax
 2174 0dfa 89D2     		movl	%edx, %edx
 2175 0dfc 4881C200 		addq	$768, %rdx
 2175      030000
 2176 0e03 8B0490   		movl	(%rax,%rdx,4), %eax
 2177 0e06 01C8     		addl	%ecx, %eax
 2178 0e08 3145FC   		xorl	%eax, -4(%rbp)
 321:blowfish.c    ****   R (ctx, xr, xl, 2);
 2179              		.loc 1 321 3
 2180 0e0b 488B45E8 		movq	-24(%rbp), %rax
 2181 0e0f 8B800810 		movl	4104(%rax), %eax
 2181      0000
 2182 0e15 3145FC   		xorl	%eax, -4(%rbp)
 2183 0e18 8B45FC   		movl	-4(%rbp), %eax
 2184 0e1b C1E818   		shrl	$24, %eax
 2185 0e1e 89C2     		movl	%eax, %edx
 2186 0e20 488B45E8 		movq	-24(%rbp), %rax
 2187 0e24 89D2     		movl	%edx, %edx
 2188 0e26 8B1490   		movl	(%rax,%rdx,4), %edx
 2189 0e29 8B45FC   		movl	-4(%rbp), %eax
 2190 0e2c C1E810   		shrl	$16, %eax
 2191 0e2f 0FB6C8   		movzbl	%al, %ecx
 2192 0e32 488B45E8 		movq	-24(%rbp), %rax
 2193 0e36 89C9     		movl	%ecx, %ecx
 2194 0e38 4881C100 		addq	$256, %rcx
 2194      010000
 2195 0e3f 8B0488   		movl	(%rax,%rcx,4), %eax
 2196 0e42 8D0C02   		leal	(%rdx,%rax), %ecx
 2197 0e45 8B45FC   		movl	-4(%rbp), %eax
 2198 0e48 C1E808   		shrl	$8, %eax
 2199 0e4b 0FB6D0   		movzbl	%al, %edx
 2200 0e4e 488B45E8 		movq	-24(%rbp), %rax
 2201 0e52 89D2     		movl	%edx, %edx
 2202 0e54 4881C200 		addq	$512, %rdx
 2202      020000
 2203 0e5b 8B0490   		movl	(%rax,%rdx,4), %eax
 2204 0e5e 31C1     		xorl	%eax, %ecx
 2205 0e60 8B45FC   		movl	-4(%rbp), %eax
 2206 0e63 0FB6D0   		movzbl	%al, %edx
 2207 0e66 488B45E8 		movq	-24(%rbp), %rax
 2208 0e6a 89D2     		movl	%edx, %edx
 2209 0e6c 4881C200 		addq	$768, %rdx
 2209      030000
 2210 0e73 8B0490   		movl	(%rax,%rdx,4), %eax
 2211 0e76 01C8     		addl	%ecx, %eax
 2212 0e78 3145F8   		xorl	%eax, -8(%rbp)
 322:blowfish.c    **** 
 323:blowfish.c    ****   xl ^= ctx->p[1];
 2213              		.loc 1 323 15
 2214 0e7b 488B45E8 		movq	-24(%rbp), %rax
 2215 0e7f 8B800410 		movl	4100(%rax), %eax
 2215      0000
 2216              		.loc 1 323 6
 2217 0e85 3145F8   		xorl	%eax, -8(%rbp)
 324:blowfish.c    ****   xr ^= ctx->p[0];
 2218              		.loc 1 324 15
 2219 0e88 488B45E8 		movq	-24(%rbp), %rax
 2220 0e8c 8B800010 		movl	4096(%rax), %eax
 2220      0000
 2221              		.loc 1 324 6
 2222 0e92 3145FC   		xorl	%eax, -4(%rbp)
 325:blowfish.c    **** 
 326:blowfish.c    ****   *ret_xl = xr;
 2223              		.loc 1 326 11
 2224 0e95 488B45E0 		movq	-32(%rbp), %rax
 2225 0e99 8B55FC   		movl	-4(%rbp), %edx
 2226 0e9c 8910     		movl	%edx, (%rax)
 327:blowfish.c    ****   *ret_xr = xl;
 2227              		.loc 1 327 11
 2228 0e9e 488B45D8 		movq	-40(%rbp), %rax
 2229 0ea2 8B55F8   		movl	-8(%rbp), %edx
 2230 0ea5 8910     		movl	%edx, (%rax)
 328:blowfish.c    **** }
 2231              		.loc 1 328 1
 2232 0ea7 90       		nop
 2233 0ea8 5D       		popq	%rbp
 2234              		.cfi_def_cfa 7, 8
 2235 0ea9 C3       		ret
 2236              		.cfi_endproc
 2237              	.LFE1:
 2239              		.section	.rodata
 2240              	.LC0:
 2241 1048 626C6F77 		.string	"blowfish.c"
 2241      66697368 
 2241      2E6300
 2242              	.LC1:
 2243 1053 2128286C 		.string	"!((length) % (8))"
 2243      656E6774 
 2243      68292025 
 2243      20283829 
 2243      2900
 2244              		.text
 2245              		.globl	nettle_blowfish_encrypt
 2247              	nettle_blowfish_encrypt:
 2248              	.LFB2:
 329:blowfish.c    **** 
 330:blowfish.c    **** #undef F
 331:blowfish.c    **** #undef R
 332:blowfish.c    **** 
 333:blowfish.c    **** void
 334:blowfish.c    **** blowfish_encrypt (const struct blowfish_ctx *ctx,
 335:blowfish.c    **** 		  size_t length, uint8_t * dst, const uint8_t * src)
 336:blowfish.c    **** {
 2249              		.loc 1 336 1
 2250              		.cfi_startproc
 2251 0eaa F30F1EFA 		endbr64
 2252 0eae 55       		pushq	%rbp
 2253              		.cfi_def_cfa_offset 16
 2254              		.cfi_offset 6, -16
 2255 0eaf 4889E5   		movq	%rsp, %rbp
 2256              		.cfi_def_cfa_register 6
 2257 0eb2 4883EC30 		subq	$48, %rsp
 2258 0eb6 48897DE8 		movq	%rdi, -24(%rbp)
 2259 0eba 488975E0 		movq	%rsi, -32(%rbp)
 2260 0ebe 488955D8 		movq	%rdx, -40(%rbp)
 2261 0ec2 48894DD0 		movq	%rcx, -48(%rbp)
 2262              		.loc 1 336 1
 2263 0ec6 64488B04 		movq	%fs:40, %rax
 2263      25280000 
 2263      00
 2264 0ecf 488945F8 		movq	%rax, -8(%rbp)
 2265 0ed3 31C0     		xorl	%eax, %eax
 337:blowfish.c    ****   FOR_BLOCKS (length, dst, src, BLOWFISH_BLOCK_SIZE)
 2266              		.loc 1 337 3
 2267 0ed5 488B45E0 		movq	-32(%rbp), %rax
 2268 0ed9 83E007   		andl	$7, %eax
 2269 0edc 4885C0   		testq	%rax, %rax
 2270 0edf 0F845B01 		je	.L5
 2270      0000
 2271              		.loc 1 337 3 is_stmt 0 discriminator 1
 2272 0ee5 488D0D00 		leaq	__PRETTY_FUNCTION__.2143(%rip), %rcx
 2272      000000
 2273 0eec BA510100 		movl	$337, %edx
 2273      00
 2274 0ef1 488D3500 		leaq	.LC0(%rip), %rsi
 2274      000000
 2275 0ef8 488D3D00 		leaq	.LC1(%rip), %rdi
 2275      000000
 2276 0eff E8000000 		call	__assert_fail@PLT
 2276      00
 2277              	.L6:
 2278              	.LBB2:
 338:blowfish.c    ****     {
 339:blowfish.c    ****       uint32_t d1, d2;
 340:blowfish.c    **** 
 341:blowfish.c    ****       d1 = READ_UINT32(src);
 2279              		.loc 1 341 12 is_stmt 1 discriminator 3
 2280 0f04 488B45D0 		movq	-48(%rbp), %rax
 2281 0f08 0FB600   		movzbl	(%rax), %eax
 2282 0f0b 0FB6C0   		movzbl	%al, %eax
 2283 0f0e C1E018   		sall	$24, %eax
 2284 0f11 89C2     		movl	%eax, %edx
 2285 0f13 488B45D0 		movq	-48(%rbp), %rax
 2286 0f17 4883C001 		addq	$1, %rax
 2287 0f1b 0FB600   		movzbl	(%rax), %eax
 2288 0f1e 0FB6C0   		movzbl	%al, %eax
 2289 0f21 C1E010   		sall	$16, %eax
 2290 0f24 09C2     		orl	%eax, %edx
 2291 0f26 488B45D0 		movq	-48(%rbp), %rax
 2292 0f2a 4883C002 		addq	$2, %rax
 2293 0f2e 0FB600   		movzbl	(%rax), %eax
 2294 0f31 0FB6C0   		movzbl	%al, %eax
 2295 0f34 C1E008   		sall	$8, %eax
 2296 0f37 09C2     		orl	%eax, %edx
 2297 0f39 488B45D0 		movq	-48(%rbp), %rax
 2298 0f3d 4883C003 		addq	$3, %rax
 2299 0f41 0FB600   		movzbl	(%rax), %eax
 2300 0f44 0FB6C0   		movzbl	%al, %eax
 2301 0f47 09D0     		orl	%edx, %eax
 2302              		.loc 1 341 10 discriminator 3
 2303 0f49 8945F0   		movl	%eax, -16(%rbp)
 342:blowfish.c    ****       d2 = READ_UINT32(src+4);
 2304              		.loc 1 342 12 discriminator 3
 2305 0f4c 488B45D0 		movq	-48(%rbp), %rax
 2306 0f50 4883C004 		addq	$4, %rax
 2307 0f54 0FB600   		movzbl	(%rax), %eax
 2308 0f57 0FB6C0   		movzbl	%al, %eax
 2309 0f5a C1E018   		sall	$24, %eax
 2310 0f5d 89C2     		movl	%eax, %edx
 2311 0f5f 488B45D0 		movq	-48(%rbp), %rax
 2312 0f63 4883C005 		addq	$5, %rax
 2313 0f67 0FB600   		movzbl	(%rax), %eax
 2314 0f6a 0FB6C0   		movzbl	%al, %eax
 2315 0f6d C1E010   		sall	$16, %eax
 2316 0f70 09C2     		orl	%eax, %edx
 2317 0f72 488B45D0 		movq	-48(%rbp), %rax
 2318 0f76 4883C006 		addq	$6, %rax
 2319 0f7a 0FB600   		movzbl	(%rax), %eax
 2320 0f7d 0FB6C0   		movzbl	%al, %eax
 2321 0f80 C1E008   		sall	$8, %eax
 2322 0f83 09C2     		orl	%eax, %edx
 2323 0f85 488B45D0 		movq	-48(%rbp), %rax
 2324 0f89 4883C007 		addq	$7, %rax
 2325 0f8d 0FB600   		movzbl	(%rax), %eax
 2326 0f90 0FB6C0   		movzbl	%al, %eax
 2327 0f93 09D0     		orl	%edx, %eax
 2328              		.loc 1 342 10 discriminator 3
 2329 0f95 8945F4   		movl	%eax, -12(%rbp)
 343:blowfish.c    ****       _nettle_blowfish_encround (ctx, &d1, &d2);
 2330              		.loc 1 343 7 discriminator 3
 2331 0f98 488D55F4 		leaq	-12(%rbp), %rdx
 2332 0f9c 488D4DF0 		leaq	-16(%rbp), %rcx
 2333 0fa0 488B45E8 		movq	-24(%rbp), %rax
 2334 0fa4 4889CE   		movq	%rcx, %rsi
 2335 0fa7 4889C7   		movq	%rax, %rdi
 2336 0faa E8000000 		call	_nettle_blowfish_encround
 2336      00
 344:blowfish.c    ****       dst[0] = (d1 >> 24) & 0xff;
 2337              		.loc 1 344 27 discriminator 3
 2338 0faf 8B45F0   		movl	-16(%rbp), %eax
 2339 0fb2 C1E818   		shrl	$24, %eax
 2340              		.loc 1 344 14 discriminator 3
 2341 0fb5 89C2     		movl	%eax, %edx
 2342 0fb7 488B45D8 		movq	-40(%rbp), %rax
 2343 0fbb 8810     		movb	%dl, (%rax)
 345:blowfish.c    ****       dst[1] = (d1 >> 16) & 0xff;
 2344              		.loc 1 345 20 discriminator 3
 2345 0fbd 8B45F0   		movl	-16(%rbp), %eax
 2346 0fc0 C1E810   		shrl	$16, %eax
 2347 0fc3 89C2     		movl	%eax, %edx
 2348              		.loc 1 345 10 discriminator 3
 2349 0fc5 488B45D8 		movq	-40(%rbp), %rax
 2350 0fc9 4883C001 		addq	$1, %rax
 2351              		.loc 1 345 14 discriminator 3
 2352 0fcd 8810     		movb	%dl, (%rax)
 346:blowfish.c    ****       dst[2] = (d1 >> 8) & 0xff;
 2353              		.loc 1 346 20 discriminator 3
 2354 0fcf 8B45F0   		movl	-16(%rbp), %eax
 2355 0fd2 C1E808   		shrl	$8, %eax
 2356 0fd5 89C2     		movl	%eax, %edx
 2357              		.loc 1 346 10 discriminator 3
 2358 0fd7 488B45D8 		movq	-40(%rbp), %rax
 2359 0fdb 4883C002 		addq	$2, %rax
 2360              		.loc 1 346 14 discriminator 3
 2361 0fdf 8810     		movb	%dl, (%rax)
 347:blowfish.c    ****       dst[3] = d1 & 0xff;
 2362              		.loc 1 347 14 discriminator 3
 2363 0fe1 8B55F0   		movl	-16(%rbp), %edx
 2364              		.loc 1 347 10 discriminator 3
 2365 0fe4 488B45D8 		movq	-40(%rbp), %rax
 2366 0fe8 4883C003 		addq	$3, %rax
 2367              		.loc 1 347 14 discriminator 3
 2368 0fec 8810     		movb	%dl, (%rax)
 348:blowfish.c    ****       dst[4] = (d2 >> 24) & 0xff;
 2369              		.loc 1 348 27 discriminator 3
 2370 0fee 8B45F4   		movl	-12(%rbp), %eax
 2371 0ff1 C1E818   		shrl	$24, %eax
 2372 0ff4 89C2     		movl	%eax, %edx
 2373              		.loc 1 348 10 discriminator 3
 2374 0ff6 488B45D8 		movq	-40(%rbp), %rax
 2375 0ffa 4883C004 		addq	$4, %rax
 2376              		.loc 1 348 14 discriminator 3
 2377 0ffe 8810     		movb	%dl, (%rax)
 349:blowfish.c    ****       dst[5] = (d2 >> 16) & 0xff;
 2378              		.loc 1 349 20 discriminator 3
 2379 1000 8B45F4   		movl	-12(%rbp), %eax
 2380 1003 C1E810   		shrl	$16, %eax
 2381 1006 89C2     		movl	%eax, %edx
 2382              		.loc 1 349 10 discriminator 3
 2383 1008 488B45D8 		movq	-40(%rbp), %rax
 2384 100c 4883C005 		addq	$5, %rax
 2385              		.loc 1 349 14 discriminator 3
 2386 1010 8810     		movb	%dl, (%rax)
 350:blowfish.c    ****       dst[6] = (d2 >> 8) & 0xff;
 2387              		.loc 1 350 20 discriminator 3
 2388 1012 8B45F4   		movl	-12(%rbp), %eax
 2389 1015 C1E808   		shrl	$8, %eax
 2390 1018 89C2     		movl	%eax, %edx
 2391              		.loc 1 350 10 discriminator 3
 2392 101a 488B45D8 		movq	-40(%rbp), %rax
 2393 101e 4883C006 		addq	$6, %rax
 2394              		.loc 1 350 14 discriminator 3
 2395 1022 8810     		movb	%dl, (%rax)
 351:blowfish.c    ****       dst[7] = d2 & 0xff;
 2396              		.loc 1 351 14 discriminator 3
 2397 1024 8B55F4   		movl	-12(%rbp), %edx
 2398              		.loc 1 351 10 discriminator 3
 2399 1027 488B45D8 		movq	-40(%rbp), %rax
 2400 102b 4883C007 		addq	$7, %rax
 2401              		.loc 1 351 14 discriminator 3
 2402 102f 8810     		movb	%dl, (%rax)
 2403              	.LBE2:
 337:blowfish.c    ****     {
 2404              		.loc 1 337 3 discriminator 3
 2405 1031 48836DE0 		subq	$8, -32(%rbp)
 2405      08
 2406 1036 488345D8 		addq	$8, -40(%rbp)
 2406      08
 2407 103b 488345D0 		addq	$8, -48(%rbp)
 2407      08
 2408              	.L5:
 337:blowfish.c    ****     {
 2409              		.loc 1 337 3 is_stmt 0 discriminator 2
 2410 1040 48837DE0 		cmpq	$0, -32(%rbp)
 2410      00
 2411 1045 0F85B9FE 		jne	.L6
 2411      FFFF
 352:blowfish.c    ****     }
 353:blowfish.c    **** }
 2412              		.loc 1 353 1 is_stmt 1
 2413 104b 90       		nop
 2414 104c 488B45F8 		movq	-8(%rbp), %rax
 2415 1050 64483304 		xorq	%fs:40, %rax
 2415      25280000 
 2415      00
 2416 1059 7405     		je	.L7
 2417 105b E8000000 		call	__stack_chk_fail@PLT
 2417      00
 2418              	.L7:
 2419 1060 C9       		leave
 2420              		.cfi_def_cfa 7, 8
 2421 1061 C3       		ret
 2422              		.cfi_endproc
 2423              	.LFE2:
 2425              		.globl	nettle_blowfish_decrypt
 2427              	nettle_blowfish_decrypt:
 2428              	.LFB3:
 354:blowfish.c    **** 
 355:blowfish.c    **** void
 356:blowfish.c    **** blowfish_decrypt (const struct blowfish_ctx *ctx,
 357:blowfish.c    **** 		  size_t length, uint8_t * dst, const uint8_t * src)
 358:blowfish.c    **** {
 2429              		.loc 1 358 1
 2430              		.cfi_startproc
 2431 1062 F30F1EFA 		endbr64
 2432 1066 55       		pushq	%rbp
 2433              		.cfi_def_cfa_offset 16
 2434              		.cfi_offset 6, -16
 2435 1067 4889E5   		movq	%rsp, %rbp
 2436              		.cfi_def_cfa_register 6
 2437 106a 4883EC30 		subq	$48, %rsp
 2438 106e 48897DE8 		movq	%rdi, -24(%rbp)
 2439 1072 488975E0 		movq	%rsi, -32(%rbp)
 2440 1076 488955D8 		movq	%rdx, -40(%rbp)
 2441 107a 48894DD0 		movq	%rcx, -48(%rbp)
 2442              		.loc 1 358 1
 2443 107e 64488B04 		movq	%fs:40, %rax
 2443      25280000 
 2443      00
 2444 1087 488945F8 		movq	%rax, -8(%rbp)
 2445 108b 31C0     		xorl	%eax, %eax
 359:blowfish.c    ****   FOR_BLOCKS (length, dst, src, BLOWFISH_BLOCK_SIZE)
 2446              		.loc 1 359 3
 2447 108d 488B45E0 		movq	-32(%rbp), %rax
 2448 1091 83E007   		andl	$7, %eax
 2449 1094 4885C0   		testq	%rax, %rax
 2450 1097 0F845B01 		je	.L10
 2450      0000
 2451              		.loc 1 359 3 is_stmt 0 discriminator 1
 2452 109d 488D0D00 		leaq	__PRETTY_FUNCTION__.2155(%rip), %rcx
 2452      000000
 2453 10a4 BA670100 		movl	$359, %edx
 2453      00
 2454 10a9 488D3500 		leaq	.LC0(%rip), %rsi
 2454      000000
 2455 10b0 488D3D00 		leaq	.LC1(%rip), %rdi
 2455      000000
 2456 10b7 E8000000 		call	__assert_fail@PLT
 2456      00
 2457              	.L11:
 2458              	.LBB3:
 360:blowfish.c    ****     {
 361:blowfish.c    ****       uint32_t d1, d2;
 362:blowfish.c    **** 
 363:blowfish.c    ****       d1 = READ_UINT32(src);
 2459              		.loc 1 363 12 is_stmt 1 discriminator 3
 2460 10bc 488B45D0 		movq	-48(%rbp), %rax
 2461 10c0 0FB600   		movzbl	(%rax), %eax
 2462 10c3 0FB6C0   		movzbl	%al, %eax
 2463 10c6 C1E018   		sall	$24, %eax
 2464 10c9 89C2     		movl	%eax, %edx
 2465 10cb 488B45D0 		movq	-48(%rbp), %rax
 2466 10cf 4883C001 		addq	$1, %rax
 2467 10d3 0FB600   		movzbl	(%rax), %eax
 2468 10d6 0FB6C0   		movzbl	%al, %eax
 2469 10d9 C1E010   		sall	$16, %eax
 2470 10dc 09C2     		orl	%eax, %edx
 2471 10de 488B45D0 		movq	-48(%rbp), %rax
 2472 10e2 4883C002 		addq	$2, %rax
 2473 10e6 0FB600   		movzbl	(%rax), %eax
 2474 10e9 0FB6C0   		movzbl	%al, %eax
 2475 10ec C1E008   		sall	$8, %eax
 2476 10ef 09C2     		orl	%eax, %edx
 2477 10f1 488B45D0 		movq	-48(%rbp), %rax
 2478 10f5 4883C003 		addq	$3, %rax
 2479 10f9 0FB600   		movzbl	(%rax), %eax
 2480 10fc 0FB6C0   		movzbl	%al, %eax
 2481 10ff 09D0     		orl	%edx, %eax
 2482              		.loc 1 363 10 discriminator 3
 2483 1101 8945F0   		movl	%eax, -16(%rbp)
 364:blowfish.c    ****       d2 = READ_UINT32(src+4);
 2484              		.loc 1 364 12 discriminator 3
 2485 1104 488B45D0 		movq	-48(%rbp), %rax
 2486 1108 4883C004 		addq	$4, %rax
 2487 110c 0FB600   		movzbl	(%rax), %eax
 2488 110f 0FB6C0   		movzbl	%al, %eax
 2489 1112 C1E018   		sall	$24, %eax
 2490 1115 89C2     		movl	%eax, %edx
 2491 1117 488B45D0 		movq	-48(%rbp), %rax
 2492 111b 4883C005 		addq	$5, %rax
 2493 111f 0FB600   		movzbl	(%rax), %eax
 2494 1122 0FB6C0   		movzbl	%al, %eax
 2495 1125 C1E010   		sall	$16, %eax
 2496 1128 09C2     		orl	%eax, %edx
 2497 112a 488B45D0 		movq	-48(%rbp), %rax
 2498 112e 4883C006 		addq	$6, %rax
 2499 1132 0FB600   		movzbl	(%rax), %eax
 2500 1135 0FB6C0   		movzbl	%al, %eax
 2501 1138 C1E008   		sall	$8, %eax
 2502 113b 09C2     		orl	%eax, %edx
 2503 113d 488B45D0 		movq	-48(%rbp), %rax
 2504 1141 4883C007 		addq	$7, %rax
 2505 1145 0FB600   		movzbl	(%rax), %eax
 2506 1148 0FB6C0   		movzbl	%al, %eax
 2507 114b 09D0     		orl	%edx, %eax
 2508              		.loc 1 364 10 discriminator 3
 2509 114d 8945F4   		movl	%eax, -12(%rbp)
 365:blowfish.c    ****       decround (ctx, &d1, &d2);
 2510              		.loc 1 365 7 discriminator 3
 2511 1150 488D55F4 		leaq	-12(%rbp), %rdx
 2512 1154 488D4DF0 		leaq	-16(%rbp), %rcx
 2513 1158 488B45E8 		movq	-24(%rbp), %rax
 2514 115c 4889CE   		movq	%rcx, %rsi
 2515 115f 4889C7   		movq	%rax, %rdi
 2516 1162 E8EEF5FF 		call	decround
 2516      FF
 366:blowfish.c    ****       dst[0] = (d1 >> 24) & 0xff;
 2517              		.loc 1 366 27 discriminator 3
 2518 1167 8B45F0   		movl	-16(%rbp), %eax
 2519 116a C1E818   		shrl	$24, %eax
 2520              		.loc 1 366 14 discriminator 3
 2521 116d 89C2     		movl	%eax, %edx
 2522 116f 488B45D8 		movq	-40(%rbp), %rax
 2523 1173 8810     		movb	%dl, (%rax)
 367:blowfish.c    ****       dst[1] = (d1 >> 16) & 0xff;
 2524              		.loc 1 367 20 discriminator 3
 2525 1175 8B45F0   		movl	-16(%rbp), %eax
 2526 1178 C1E810   		shrl	$16, %eax
 2527 117b 89C2     		movl	%eax, %edx
 2528              		.loc 1 367 10 discriminator 3
 2529 117d 488B45D8 		movq	-40(%rbp), %rax
 2530 1181 4883C001 		addq	$1, %rax
 2531              		.loc 1 367 14 discriminator 3
 2532 1185 8810     		movb	%dl, (%rax)
 368:blowfish.c    ****       dst[2] = (d1 >> 8) & 0xff;
 2533              		.loc 1 368 20 discriminator 3
 2534 1187 8B45F0   		movl	-16(%rbp), %eax
 2535 118a C1E808   		shrl	$8, %eax
 2536 118d 89C2     		movl	%eax, %edx
 2537              		.loc 1 368 10 discriminator 3
 2538 118f 488B45D8 		movq	-40(%rbp), %rax
 2539 1193 4883C002 		addq	$2, %rax
 2540              		.loc 1 368 14 discriminator 3
 2541 1197 8810     		movb	%dl, (%rax)
 369:blowfish.c    ****       dst[3] = d1 & 0xff;
 2542              		.loc 1 369 14 discriminator 3
 2543 1199 8B55F0   		movl	-16(%rbp), %edx
 2544              		.loc 1 369 10 discriminator 3
 2545 119c 488B45D8 		movq	-40(%rbp), %rax
 2546 11a0 4883C003 		addq	$3, %rax
 2547              		.loc 1 369 14 discriminator 3
 2548 11a4 8810     		movb	%dl, (%rax)
 370:blowfish.c    ****       dst[4] = (d2 >> 24) & 0xff;
 2549              		.loc 1 370 27 discriminator 3
 2550 11a6 8B45F4   		movl	-12(%rbp), %eax
 2551 11a9 C1E818   		shrl	$24, %eax
 2552 11ac 89C2     		movl	%eax, %edx
 2553              		.loc 1 370 10 discriminator 3
 2554 11ae 488B45D8 		movq	-40(%rbp), %rax
 2555 11b2 4883C004 		addq	$4, %rax
 2556              		.loc 1 370 14 discriminator 3
 2557 11b6 8810     		movb	%dl, (%rax)
 371:blowfish.c    ****       dst[5] = (d2 >> 16) & 0xff;
 2558              		.loc 1 371 20 discriminator 3
 2559 11b8 8B45F4   		movl	-12(%rbp), %eax
 2560 11bb C1E810   		shrl	$16, %eax
 2561 11be 89C2     		movl	%eax, %edx
 2562              		.loc 1 371 10 discriminator 3
 2563 11c0 488B45D8 		movq	-40(%rbp), %rax
 2564 11c4 4883C005 		addq	$5, %rax
 2565              		.loc 1 371 14 discriminator 3
 2566 11c8 8810     		movb	%dl, (%rax)
 372:blowfish.c    ****       dst[6] = (d2 >> 8) & 0xff;
 2567              		.loc 1 372 20 discriminator 3
 2568 11ca 8B45F4   		movl	-12(%rbp), %eax
 2569 11cd C1E808   		shrl	$8, %eax
 2570 11d0 89C2     		movl	%eax, %edx
 2571              		.loc 1 372 10 discriminator 3
 2572 11d2 488B45D8 		movq	-40(%rbp), %rax
 2573 11d6 4883C006 		addq	$6, %rax
 2574              		.loc 1 372 14 discriminator 3
 2575 11da 8810     		movb	%dl, (%rax)
 373:blowfish.c    ****       dst[7] = d2 & 0xff;
 2576              		.loc 1 373 14 discriminator 3
 2577 11dc 8B55F4   		movl	-12(%rbp), %edx
 2578              		.loc 1 373 10 discriminator 3
 2579 11df 488B45D8 		movq	-40(%rbp), %rax
 2580 11e3 4883C007 		addq	$7, %rax
 2581              		.loc 1 373 14 discriminator 3
 2582 11e7 8810     		movb	%dl, (%rax)
 2583              	.LBE3:
 359:blowfish.c    ****     {
 2584              		.loc 1 359 3 discriminator 3
 2585 11e9 48836DE0 		subq	$8, -32(%rbp)
 2585      08
 2586 11ee 488345D8 		addq	$8, -40(%rbp)
 2586      08
 2587 11f3 488345D0 		addq	$8, -48(%rbp)
 2587      08
 2588              	.L10:
 359:blowfish.c    ****     {
 2589              		.loc 1 359 3 is_stmt 0 discriminator 2
 2590 11f8 48837DE0 		cmpq	$0, -32(%rbp)
 2590      00
 2591 11fd 0F85B9FE 		jne	.L11
 2591      FFFF
 374:blowfish.c    ****     }
 375:blowfish.c    **** }
 2592              		.loc 1 375 1 is_stmt 1
 2593 1203 90       		nop
 2594 1204 488B45F8 		movq	-8(%rbp), %rax
 2595 1208 64483304 		xorq	%fs:40, %rax
 2595      25280000 
 2595      00
 2596 1211 7405     		je	.L12
 2597 1213 E8000000 		call	__stack_chk_fail@PLT
 2597      00
 2598              	.L12:
 2599 1218 C9       		leave
 2600              		.cfi_def_cfa 7, 8
 2601 1219 C3       		ret
 2602              		.cfi_endproc
 2603              	.LFE3:
 2605              		.globl	nettle_blowfish_set_key
 2607              	nettle_blowfish_set_key:
 2608              	.LFB4:
 376:blowfish.c    **** 
 377:blowfish.c    **** int
 378:blowfish.c    **** blowfish_set_key (struct blowfish_ctx *ctx,
 379:blowfish.c    **** 		  size_t length, const uint8_t * key)
 380:blowfish.c    **** {
 2609              		.loc 1 380 1
 2610              		.cfi_startproc
 2611 121a F30F1EFA 		endbr64
 2612 121e 55       		pushq	%rbp
 2613              		.cfi_def_cfa_offset 16
 2614              		.cfi_offset 6, -16
 2615 121f 4889E5   		movq	%rsp, %rbp
 2616              		.cfi_def_cfa_register 6
 2617 1222 4883EC40 		subq	$64, %rsp
 2618 1226 48897DD8 		movq	%rdi, -40(%rbp)
 2619 122a 488975D0 		movq	%rsi, -48(%rbp)
 2620 122e 488955C8 		movq	%rdx, -56(%rbp)
 2621              		.loc 1 380 1
 2622 1232 64488B04 		movq	%fs:40, %rax
 2622      25280000 
 2622      00
 2623 123b 488945F8 		movq	%rax, -8(%rbp)
 2624 123f 31C0     		xorl	%eax, %eax
 381:blowfish.c    ****   int i, j;
 382:blowfish.c    ****   uint32_t data, datal, datar;
 383:blowfish.c    **** 
 384:blowfish.c    ****   *ctx = _nettle_blowfish_initial_ctx;
 2625              		.loc 1 384 8
 2626 1241 488B45D8 		movq	-40(%rbp), %rax
 2627 1245 4889C2   		movq	%rax, %rdx
 2628 1248 488D0500 		leaq	_nettle_blowfish_initial_ctx(%rip), %rax
 2628      000000
 2629 124f B9481000 		movl	$4168, %ecx
 2629      00
 2630 1254 488B30   		movq	(%rax), %rsi
 2631 1257 488932   		movq	%rsi, (%rdx)
 2632 125a 89CE     		movl	%ecx, %esi
 2633 125c 4801D6   		addq	%rdx, %rsi
 2634 125f 488D7E08 		leaq	8(%rsi), %rdi
 2635 1263 89CE     		movl	%ecx, %esi
 2636 1265 4801C6   		addq	%rax, %rsi
 2637 1268 4883C608 		addq	$8, %rsi
 2638 126c 488B76F0 		movq	-16(%rsi), %rsi
 2639 1270 488977F0 		movq	%rsi, -16(%rdi)
 2640 1274 488D7A08 		leaq	8(%rdx), %rdi
 2641 1278 4883E7F8 		andq	$-8, %rdi
 2642 127c 4829FA   		subq	%rdi, %rdx
 2643 127f 4829D0   		subq	%rdx, %rax
 2644 1282 01D1     		addl	%edx, %ecx
 2645 1284 83E1F8   		andl	$-8, %ecx
 2646 1287 C1E903   		shrl	$3, %ecx
 2647 128a 89CA     		movl	%ecx, %edx
 2648 128c 89D2     		movl	%edx, %edx
 2649 128e 4889C6   		movq	%rax, %rsi
 2650 1291 4889D1   		movq	%rdx, %rcx
 2651 1294 F348A5   		rep movsq
 385:blowfish.c    **** 
 386:blowfish.c    ****   for (i = j = 0; i < _BLOWFISH_ROUNDS + 2; i++)
 2652              		.loc 1 386 14
 2653 1297 C745F000 		movl	$0, -16(%rbp)
 2653      000000
 2654              		.loc 1 386 10
 2655 129e 8B45F0   		movl	-16(%rbp), %eax
 2656 12a1 8945EC   		movl	%eax, -20(%rbp)
 2657              		.loc 1 386 3
 2658 12a4 E9C90000 		jmp	.L14
 2658      00
 2659              	.L15:
 387:blowfish.c    ****     {
 388:blowfish.c    ****       data = ((uint32_t) key[j] << 24)
 2660              		.loc 1 388 29 discriminator 3
 2661 12a9 8B45F0   		movl	-16(%rbp), %eax
 2662 12ac 4863D0   		movslq	%eax, %rdx
 2663 12af 488B45C8 		movq	-56(%rbp), %rax
 2664 12b3 4801D0   		addq	%rdx, %rax
 2665 12b6 0FB600   		movzbl	(%rax), %eax
 2666              		.loc 1 388 15 discriminator 3
 2667 12b9 0FB6C0   		movzbl	%al, %eax
 2668              		.loc 1 388 33 discriminator 3
 2669 12bc C1E018   		sall	$24, %eax
 2670 12bf 89C1     		movl	%eax, %ecx
 389:blowfish.c    **** 	| ((uint32_t) key[(j+1) % length] << 16)
 2671              		.loc 1 389 22 discriminator 3
 2672 12c1 8B45F0   		movl	-16(%rbp), %eax
 2673 12c4 83C001   		addl	$1, %eax
 2674 12c7 4898     		cltq
 2675              		.loc 1 389 26 discriminator 3
 2676 12c9 BA000000 		movl	$0, %edx
 2676      00
 2677 12ce 48F775D0 		divq	-48(%rbp)
 2678              		.loc 1 389 19 discriminator 3
 2679 12d2 488B45C8 		movq	-56(%rbp), %rax
 2680 12d6 4801D0   		addq	%rdx, %rax
 2681 12d9 0FB600   		movzbl	(%rax), %eax
 2682              		.loc 1 389 5 discriminator 3
 2683 12dc 0FB6C0   		movzbl	%al, %eax
 2684              		.loc 1 389 36 discriminator 3
 2685 12df C1E010   		sall	$16, %eax
 2686              		.loc 1 389 2 discriminator 3
 2687 12e2 09C1     		orl	%eax, %ecx
 390:blowfish.c    **** 	| ((uint32_t) key[(j+2) % length] << 8)
 2688              		.loc 1 390 22 discriminator 3
 2689 12e4 8B45F0   		movl	-16(%rbp), %eax
 2690 12e7 83C002   		addl	$2, %eax
 2691 12ea 4898     		cltq
 2692              		.loc 1 390 26 discriminator 3
 2693 12ec BA000000 		movl	$0, %edx
 2693      00
 2694 12f1 48F775D0 		divq	-48(%rbp)
 2695              		.loc 1 390 19 discriminator 3
 2696 12f5 488B45C8 		movq	-56(%rbp), %rax
 2697 12f9 4801D0   		addq	%rdx, %rax
 2698 12fc 0FB600   		movzbl	(%rax), %eax
 2699              		.loc 1 390 5 discriminator 3
 2700 12ff 0FB6C0   		movzbl	%al, %eax
 2701              		.loc 1 390 36 discriminator 3
 2702 1302 C1E008   		sall	$8, %eax
 2703              		.loc 1 390 2 discriminator 3
 2704 1305 09C1     		orl	%eax, %ecx
 391:blowfish.c    **** 	| (uint32_t) key[(j+3) % length];
 2705              		.loc 1 391 21 discriminator 3
 2706 1307 8B45F0   		movl	-16(%rbp), %eax
 2707 130a 83C003   		addl	$3, %eax
 2708 130d 4898     		cltq
 2709              		.loc 1 391 25 discriminator 3
 2710 130f BA000000 		movl	$0, %edx
 2710      00
 2711 1314 48F775D0 		divq	-48(%rbp)
 2712              		.loc 1 391 18 discriminator 3
 2713 1318 488B45C8 		movq	-56(%rbp), %rax
 2714 131c 4801D0   		addq	%rdx, %rax
 2715 131f 0FB600   		movzbl	(%rax), %eax
 2716              		.loc 1 391 4 discriminator 3
 2717 1322 0FB6C0   		movzbl	%al, %eax
 388:blowfish.c    **** 	| ((uint32_t) key[(j+1) % length] << 16)
 2718              		.loc 1 388 12 discriminator 3
 2719 1325 09C8     		orl	%ecx, %eax
 2720 1327 8945F4   		movl	%eax, -12(%rbp)
 392:blowfish.c    ****       ctx->p[i] ^= data;
 2721              		.loc 1 392 17 discriminator 3
 2722 132a 488B45D8 		movq	-40(%rbp), %rax
 2723 132e 8B55EC   		movl	-20(%rbp), %edx
 2724 1331 4863D2   		movslq	%edx, %rdx
 2725 1334 4881C200 		addq	$1024, %rdx
 2725      040000
 2726 133b 8B0490   		movl	(%rax,%rdx,4), %eax
 2727 133e 3345F4   		xorl	-12(%rbp), %eax
 2728 1341 89C2     		movl	%eax, %edx
 2729 1343 488B45D8 		movq	-40(%rbp), %rax
 2730 1347 8B4DEC   		movl	-20(%rbp), %ecx
 2731 134a 4863C9   		movslq	%ecx, %rcx
 2732 134d 4881C100 		addq	$1024, %rcx
 2732      040000
 2733 1354 891488   		movl	%edx, (%rax,%rcx,4)
 393:blowfish.c    ****       j = (j + 4) % length;
 2734              		.loc 1 393 14 discriminator 3
 2735 1357 8B45F0   		movl	-16(%rbp), %eax
 2736 135a 83C004   		addl	$4, %eax
 2737 135d 4898     		cltq
 2738              		.loc 1 393 19 discriminator 3
 2739 135f BA000000 		movl	$0, %edx
 2739      00
 2740 1364 48F775D0 		divq	-48(%rbp)
 2741 1368 4889D0   		movq	%rdx, %rax
 2742              		.loc 1 393 9 discriminator 3
 2743 136b 8945F0   		movl	%eax, -16(%rbp)
 386:blowfish.c    ****     {
 2744              		.loc 1 386 46 discriminator 3
 2745 136e 8345EC01 		addl	$1, -20(%rbp)
 2746              	.L14:
 386:blowfish.c    ****     {
 2747              		.loc 1 386 3 discriminator 1
 2748 1372 837DEC11 		cmpl	$17, -20(%rbp)
 2749 1376 0F8E2DFF 		jle	.L15
 2749      FFFF
 394:blowfish.c    ****     }
 395:blowfish.c    **** 
 396:blowfish.c    ****   datal = datar = 0;
 2750              		.loc 1 396 17
 2751 137c C745E800 		movl	$0, -24(%rbp)
 2751      000000
 2752              		.loc 1 396 9
 2753 1383 8B45E8   		movl	-24(%rbp), %eax
 2754 1386 8945E4   		movl	%eax, -28(%rbp)
 397:blowfish.c    ****   for (i = 0; i < _BLOWFISH_ROUNDS + 2; i += 2)
 2755              		.loc 1 397 10
 2756 1389 C745EC00 		movl	$0, -20(%rbp)
 2756      000000
 2757              		.loc 1 397 3
 2758 1390 EB4C     		jmp	.L16
 2759              	.L17:
 398:blowfish.c    ****     {
 399:blowfish.c    ****       _nettle_blowfish_encround (ctx, &datal, &datar);
 2760              		.loc 1 399 7 discriminator 3
 2761 1392 488D55E8 		leaq	-24(%rbp), %rdx
 2762 1396 488D4DE4 		leaq	-28(%rbp), %rcx
 2763 139a 488B45D8 		movq	-40(%rbp), %rax
 2764 139e 4889CE   		movq	%rcx, %rsi
 2765 13a1 4889C7   		movq	%rax, %rdi
 2766 13a4 E8000000 		call	_nettle_blowfish_encround
 2766      00
 400:blowfish.c    ****       ctx->p[i] = datal;
 2767              		.loc 1 400 17 discriminator 3
 2768 13a9 8B55E4   		movl	-28(%rbp), %edx
 2769 13ac 488B45D8 		movq	-40(%rbp), %rax
 2770 13b0 8B4DEC   		movl	-20(%rbp), %ecx
 2771 13b3 4863C9   		movslq	%ecx, %rcx
 2772 13b6 4881C100 		addq	$1024, %rcx
 2772      040000
 2773 13bd 891488   		movl	%edx, (%rax,%rcx,4)
 401:blowfish.c    ****       ctx->p[i + 1] = datar;
 2774              		.loc 1 401 16 discriminator 3
 2775 13c0 8B45EC   		movl	-20(%rbp), %eax
 2776 13c3 8D4801   		leal	1(%rax), %ecx
 2777              		.loc 1 401 21 discriminator 3
 2778 13c6 8B55E8   		movl	-24(%rbp), %edx
 2779 13c9 488B45D8 		movq	-40(%rbp), %rax
 2780 13cd 4863C9   		movslq	%ecx, %rcx
 2781 13d0 4881C100 		addq	$1024, %rcx
 2781      040000
 2782 13d7 891488   		movl	%edx, (%rax,%rcx,4)
 397:blowfish.c    ****     {
 2783              		.loc 1 397 43 discriminator 3
 2784 13da 8345EC02 		addl	$2, -20(%rbp)
 2785              	.L16:
 397:blowfish.c    ****     {
 2786              		.loc 1 397 3 discriminator 1
 2787 13de 837DEC11 		cmpl	$17, -20(%rbp)
 2788 13e2 7EAE     		jle	.L17
 402:blowfish.c    ****     }
 403:blowfish.c    **** 
 404:blowfish.c    ****   for (j = 0; j < 4; j++)
 2789              		.loc 1 404 10
 2790 13e4 C745F000 		movl	$0, -16(%rbp)
 2790      000000
 2791              		.loc 1 404 3
 2792 13eb EB6E     		jmp	.L18
 2793              	.L21:
 405:blowfish.c    ****     for (i = 0; i < 256; i += 2)
 2794              		.loc 1 405 12
 2795 13ed C745EC00 		movl	$0, -20(%rbp)
 2795      000000
 2796              		.loc 1 405 5
 2797 13f4 EB58     		jmp	.L19
 2798              	.L20:
 406:blowfish.c    ****       {
 407:blowfish.c    **** 	_nettle_blowfish_encround (ctx, &datal, &datar);
 2799              		.loc 1 407 2 discriminator 3
 2800 13f6 488D55E8 		leaq	-24(%rbp), %rdx
 2801 13fa 488D4DE4 		leaq	-28(%rbp), %rcx
 2802 13fe 488B45D8 		movq	-40(%rbp), %rax
 2803 1402 4889CE   		movq	%rcx, %rsi
 2804 1405 4889C7   		movq	%rax, %rdi
 2805 1408 E8000000 		call	_nettle_blowfish_encround
 2805      00
 408:blowfish.c    **** 	ctx->s[j][i] = datal;
 2806              		.loc 1 408 15 discriminator 3
 2807 140d 8B55E4   		movl	-28(%rbp), %edx
 2808 1410 488B45D8 		movq	-40(%rbp), %rax
 2809 1414 8B4DEC   		movl	-20(%rbp), %ecx
 2810 1417 4863C9   		movslq	%ecx, %rcx
 2811 141a 8B75F0   		movl	-16(%rbp), %esi
 2812 141d 4863F6   		movslq	%esi, %rsi
 2813 1420 48C1E608 		salq	$8, %rsi
 2814 1424 4801F1   		addq	%rsi, %rcx
 2815 1427 891488   		movl	%edx, (%rax,%rcx,4)
 409:blowfish.c    **** 	ctx->s[j][i + 1] = datar;
 2816              		.loc 1 409 14 discriminator 3
 2817 142a 8B45EC   		movl	-20(%rbp), %eax
 2818 142d 8D4801   		leal	1(%rax), %ecx
 2819              		.loc 1 409 19 discriminator 3
 2820 1430 8B55E8   		movl	-24(%rbp), %edx
 2821 1433 488B45D8 		movq	-40(%rbp), %rax
 2822 1437 4863C9   		movslq	%ecx, %rcx
 2823 143a 8B75F0   		movl	-16(%rbp), %esi
 2824 143d 4863F6   		movslq	%esi, %rsi
 2825 1440 48C1E608 		salq	$8, %rsi
 2826 1444 4801F1   		addq	%rsi, %rcx
 2827 1447 891488   		movl	%edx, (%rax,%rcx,4)
 405:blowfish.c    ****       {
 2828              		.loc 1 405 28 discriminator 3
 2829 144a 8345EC02 		addl	$2, -20(%rbp)
 2830              	.L19:
 405:blowfish.c    ****       {
 2831              		.loc 1 405 5 discriminator 1
 2832 144e 817DECFF 		cmpl	$255, -20(%rbp)
 2832      000000
 2833 1455 7E9F     		jle	.L20
 404:blowfish.c    ****     for (i = 0; i < 256; i += 2)
 2834              		.loc 1 404 23 discriminator 2
 2835 1457 8345F001 		addl	$1, -16(%rbp)
 2836              	.L18:
 404:blowfish.c    ****     for (i = 0; i < 256; i += 2)
 2837              		.loc 1 404 3 discriminator 1
 2838 145b 837DF003 		cmpl	$3, -16(%rbp)
 2839 145f 7E8C     		jle	.L21
 410:blowfish.c    ****     }
 411:blowfish.c    **** 
 412:blowfish.c    ****   /* Check for weak key.  A weak key is a key in which a value in
 413:blowfish.c    ****      the P-array (here c) occurs more than once per table.  */
 414:blowfish.c    ****   for (i = 0; i < 255; i++)
 2840              		.loc 1 414 10
 2841 1461 C745EC00 		movl	$0, -20(%rbp)
 2841      000000
 2842              		.loc 1 414 3
 2843 1468 E9D00000 		jmp	.L22
 2843      00
 2844              	.L28:
 415:blowfish.c    ****     {
 416:blowfish.c    ****       for (j = i + 1; j < 256; j++)
 2845              		.loc 1 416 14
 2846 146d 8B45EC   		movl	-20(%rbp), %eax
 2847 1470 83C001   		addl	$1, %eax
 2848 1473 8945F0   		movl	%eax, -16(%rbp)
 2849              		.loc 1 416 7
 2850 1476 E9B10000 		jmp	.L23
 2850      00
 2851              	.L27:
 417:blowfish.c    **** 	{
 418:blowfish.c    **** 	  if ((ctx->s[0][i] == ctx->s[0][j])
 2852              		.loc 1 418 18
 2853 147b 488B45D8 		movq	-40(%rbp), %rax
 2854 147f 8B55EC   		movl	-20(%rbp), %edx
 2855 1482 4863D2   		movslq	%edx, %rdx
 2856 1485 8B0C90   		movl	(%rax,%rdx,4), %ecx
 2857              		.loc 1 418 34
 2858 1488 488B45D8 		movq	-40(%rbp), %rax
 2859 148c 8B55F0   		movl	-16(%rbp), %edx
 2860 148f 4863D2   		movslq	%edx, %rdx
 2861 1492 8B0490   		movl	(%rax,%rdx,4), %eax
 2862              		.loc 1 418 7
 2863 1495 39C1     		cmpl	%eax, %ecx
 2864 1497 0F848400 		je	.L24
 2864      0000
 419:blowfish.c    **** 	      || (ctx->s[1][i] == ctx->s[1][j])
 2865              		.loc 1 419 21
 2866 149d 488B45D8 		movq	-40(%rbp), %rax
 2867 14a1 8B55EC   		movl	-20(%rbp), %edx
 2868 14a4 4863D2   		movslq	%edx, %rdx
 2869 14a7 4881C200 		addq	$256, %rdx
 2869      010000
 2870 14ae 8B1490   		movl	(%rax,%rdx,4), %edx
 2871              		.loc 1 419 37
 2872 14b1 488B45D8 		movq	-40(%rbp), %rax
 2873 14b5 8B4DF0   		movl	-16(%rbp), %ecx
 2874 14b8 4863C9   		movslq	%ecx, %rcx
 2875 14bb 4881C100 		addq	$256, %rcx
 2875      010000
 2876 14c2 8B0488   		movl	(%rax,%rcx,4), %eax
 2877              		.loc 1 419 8
 2878 14c5 39C2     		cmpl	%eax, %edx
 2879 14c7 7458     		je	.L24
 420:blowfish.c    **** 	      || (ctx->s[2][i] == ctx->s[2][j])
 2880              		.loc 1 420 21
 2881 14c9 488B45D8 		movq	-40(%rbp), %rax
 2882 14cd 8B55EC   		movl	-20(%rbp), %edx
 2883 14d0 4863D2   		movslq	%edx, %rdx
 2884 14d3 4881C200 		addq	$512, %rdx
 2884      020000
 2885 14da 8B1490   		movl	(%rax,%rdx,4), %edx
 2886              		.loc 1 420 37
 2887 14dd 488B45D8 		movq	-40(%rbp), %rax
 2888 14e1 8B4DF0   		movl	-16(%rbp), %ecx
 2889 14e4 4863C9   		movslq	%ecx, %rcx
 2890 14e7 4881C100 		addq	$512, %rcx
 2890      020000
 2891 14ee 8B0488   		movl	(%rax,%rcx,4), %eax
 2892              		.loc 1 420 8
 2893 14f1 39C2     		cmpl	%eax, %edx
 2894 14f3 742C     		je	.L24
 421:blowfish.c    **** 	      || (ctx->s[3][i] == ctx->s[3][j]))
 2895              		.loc 1 421 21
 2896 14f5 488B45D8 		movq	-40(%rbp), %rax
 2897 14f9 8B55EC   		movl	-20(%rbp), %edx
 2898 14fc 4863D2   		movslq	%edx, %rdx
 2899 14ff 4881C200 		addq	$768, %rdx
 2899      030000
 2900 1506 8B1490   		movl	(%rax,%rdx,4), %edx
 2901              		.loc 1 421 37
 2902 1509 488B45D8 		movq	-40(%rbp), %rax
 2903 150d 8B4DF0   		movl	-16(%rbp), %ecx
 2904 1510 4863C9   		movslq	%ecx, %rcx
 2905 1513 4881C100 		addq	$768, %rcx
 2905      030000
 2906 151a 8B0488   		movl	(%rax,%rcx,4), %eax
 2907              		.loc 1 421 8
 2908 151d 39C2     		cmpl	%eax, %edx
 2909 151f 7507     		jne	.L25
 2910              	.L24:
 422:blowfish.c    **** 	    return 0;
 2911              		.loc 1 422 13
 2912 1521 B8000000 		movl	$0, %eax
 2912      00
 2913 1526 EB27     		jmp	.L29
 2914              	.L25:
 416:blowfish.c    **** 	{
 2915              		.loc 1 416 33 discriminator 2
 2916 1528 8345F001 		addl	$1, -16(%rbp)
 2917              	.L23:
 416:blowfish.c    **** 	{
 2918              		.loc 1 416 7 discriminator 1
 2919 152c 817DF0FF 		cmpl	$255, -16(%rbp)
 2919      000000
 2920 1533 0F8E42FF 		jle	.L27
 2920      FFFF
 414:blowfish.c    ****     {
 2921              		.loc 1 414 25 discriminator 2
 2922 1539 8345EC01 		addl	$1, -20(%rbp)
 2923              	.L22:
 414:blowfish.c    ****     {
 2924              		.loc 1 414 3 discriminator 1
 2925 153d 817DECFE 		cmpl	$254, -20(%rbp)
 2925      000000
 2926 1544 0F8E23FF 		jle	.L28
 2926      FFFF
 423:blowfish.c    **** 	}
 424:blowfish.c    ****     }
 425:blowfish.c    **** 
 426:blowfish.c    ****   return 1;
 2927              		.loc 1 426 10
 2928 154a B8010000 		movl	$1, %eax
 2928      00
 2929              	.L29:
 427:blowfish.c    **** }
 2930              		.loc 1 427 1 discriminator 1
 2931 154f 488B7DF8 		movq	-8(%rbp), %rdi
 2932 1553 6448333C 		xorq	%fs:40, %rdi
 2932      25280000 
 2932      00
 2933 155c 7405     		je	.L30
 2934              		.loc 1 427 1 is_stmt 0
 2935 155e E8000000 		call	__stack_chk_fail@PLT
 2935      00
 2936              	.L30:
 2937 1563 C9       		leave
 2938              		.cfi_def_cfa 7, 8
 2939 1564 C3       		ret
 2940              		.cfi_endproc
 2941              	.LFE4:
 2943              		.globl	nettle_blowfish128_set_key
 2945              	nettle_blowfish128_set_key:
 2946              	.LFB5:
 428:blowfish.c    **** 
 429:blowfish.c    **** int
 430:blowfish.c    **** blowfish128_set_key(struct blowfish_ctx *ctx, const uint8_t *key)
 431:blowfish.c    **** {
 2947              		.loc 1 431 1 is_stmt 1
 2948              		.cfi_startproc
 2949 1565 F30F1EFA 		endbr64
 2950 1569 55       		pushq	%rbp
 2951              		.cfi_def_cfa_offset 16
 2952              		.cfi_offset 6, -16
 2953 156a 4889E5   		movq	%rsp, %rbp
 2954              		.cfi_def_cfa_register 6
 2955 156d 4883EC10 		subq	$16, %rsp
 2956 1571 48897DF8 		movq	%rdi, -8(%rbp)
 2957 1575 488975F0 		movq	%rsi, -16(%rbp)
 432:blowfish.c    ****   return blowfish_set_key (ctx, BLOWFISH128_KEY_SIZE, key);
 2958              		.loc 1 432 10
 2959 1579 488B55F0 		movq	-16(%rbp), %rdx
 2960 157d 488B45F8 		movq	-8(%rbp), %rax
 2961 1581 BE100000 		movl	$16, %esi
 2961      00
 2962 1586 4889C7   		movq	%rax, %rdi
 2963 1589 E8000000 		call	nettle_blowfish_set_key
 2963      00
 433:blowfish.c    **** }
 2964              		.loc 1 433 1
 2965 158e C9       		leave
 2966              		.cfi_def_cfa 7, 8
 2967 158f C3       		ret
 2968              		.cfi_endproc
 2969              	.LFE5:
 2971              		.section	.rodata
 2972 1065 00000000 		.align 16
 2972      00000000 
 2972      000000
 2975              	__PRETTY_FUNCTION__.2143:
 2976 1070 6E657474 		.string	"nettle_blowfish_encrypt"
 2976      6C655F62 
 2976      6C6F7766 
 2976      6973685F 
 2976      656E6372 
 2977 1088 00000000 		.align 16
 2977      00000000 
 2980              	__PRETTY_FUNCTION__.2155:
 2981 1090 6E657474 		.string	"nettle_blowfish_decrypt"
 2981      6C655F62 
 2981      6C6F7766 
 2981      6973685F 
 2981      64656372 
 2982              		.text
 2983              	.Letext0:
 2984              		.file 2 "/usr/lib/gcc/x86_64-linux-gnu/9/include/stddef.h"
 2985              		.file 3 "/usr/include/x86_64-linux-gnu/bits/types.h"
 2986              		.file 4 "/usr/include/x86_64-linux-gnu/bits/stdint-uintn.h"
 2987              		.file 5 "blowfish.h"
 2988              		.file 6 "blowfish-internal.h"
 3993              		.section	.note.gnu.property,"a"
 3994              		.align 8
 3995 0000 04000000 		.long	 1f - 0f
 3996 0004 10000000 		.long	 4f - 1f
 3997 0008 05000000 		.long	 5
 3998              	0:
 3999 000c 474E5500 		.string	 "GNU"
 4000              	1:
 4001              		.align 8
 4002 0010 020000C0 		.long	 0xc0000002
 4003 0014 04000000 		.long	 3f - 2f
 4004              	2:
 4005 0018 03000000 		.long	 0x3
 4006              	3:
 4007 001c 00000000 		.align 8
 4008              	4:
