   1              		.arch armv5t
   2              		.eabi_attribute 20, 1
   3              		.eabi_attribute 21, 1
   4              		.eabi_attribute 23, 3
   5              		.eabi_attribute 24, 1
   6              		.eabi_attribute 25, 1
   7              		.eabi_attribute 26, 2
   8              		.eabi_attribute 30, 6
   9              		.eabi_attribute 34, 0
  10              		.eabi_attribute 18, 4
  11              		.file	"blowfish.c"
  12              		.text
  13              	.Ltext0:
  14              		.cfi_sections	.debug_frame
  15              		.global	_nettle_blowfish_initial_ctx
  16              		.section	.rodata
  17              		.align	2
  20              	_nettle_blowfish_initial_ctx:
  21 0000 A60B31D1 		.word	-785314906
  22 0004 ACB5DF98 		.word	-1730169428
  23 0008 DB72FD2F 		.word	805139163
  24 000c B7DF1AD0 		.word	-803545161
  25 0010 EDAFE1B8 		.word	-1193168915
  26 0014 967E266A 		.word	1780907670
  27 0018 45907CBA 		.word	-1166241723
  28 001c 997F2CF1 		.word	-248741991
  29 0020 4799A124 		.word	614570311
  30 0024 F76C91B3 		.word	-1282315017
  31 0028 E2F20108 		.word	134345442
  32 002c 16FC8E85 		.word	-2054226922
  33 0030 D8206963 		.word	1667834072
  34 0034 694E5771 		.word	1901547113
  35 0038 A3FE58A4 		.word	-1537671517
  36 003c 7E3D93F4 		.word	-191677058
  37 0040 8F74950D 		.word	227898511
  38 0044 58B68E72 		.word	1921955416
  39 0048 58CD8B71 		.word	1904987480
  40 004c EE4A1582 		.word	-2112533778
  41 0050 1DA4547B 		.word	2069144605
  42 0054 B5595AC2 		.word	-1034266187
  43 0058 39D5309C 		.word	-1674521287
  44 005c 1360F22A 		.word	720527379
  45 0060 23B0D1C5 		.word	-976113629
  46 0064 F0856028 		.word	677414384
  47 0068 187941CA 		.word	-901678824
  48 006c EF38DBB8 		.word	-1193592593
  49 0070 B0DC798E 		.word	-1904616272
  50 0074 0E183A60 		.word	1614419982
  51 0078 8B0E9E6C 		.word	1822297739
  52 007c 3E8A1EB0 		.word	-1340175810
  53 0080 C17715D7 		.word	-686458943
  54 0084 274B31BD 		.word	-1120842969
  55 0088 DA2FAF78 		.word	2024746970
  56 008c 605C6055 		.word	1432378464
  57 0090 F32555E6 		.word	-430627341
  58 0094 94AB55AA 		.word	-1437226092
  59 0098 62984857 		.word	1464375394
  60 009c 4014E863 		.word	1676153920
  61 00a0 6A39CA55 		.word	1439316330
  62 00a4 B610AB2A 		.word	715854006
  63 00a8 345CCCB4 		.word	-1261675468
  64 00ac CEE84111 		.word	289532110
  65 00b0 AF8654A1 		.word	-1588296017
  66 00b4 93E9727C 		.word	2087905683
  67 00b8 1114EEB3 		.word	-1276242927
  68 00bc 2ABC6F63 		.word	1668267050
  69 00c0 5DC5A92B 		.word	732546397
  70 00c4 F6311874 		.word	1947742710
  71 00c8 163E5CCE 		.word	-832815594
  72 00cc 1E93879B 		.word	-1685613794
  73 00d0 33BAD6AF 		.word	-1344882125
  74 00d4 5CCF246C 		.word	1814351708
  75 00d8 8153327A 		.word	2050118529
  76 00dc 77869528 		.word	680887927
  77 00e0 98488F3B 		.word	999245976
  78 00e4 AFB94B6B 		.word	1800124847
  79 00e8 1BE8BFC4 		.word	-994056165
  80 00ec 93212866 		.word	1713906067
  81 00f0 CC09D861 		.word	1641548236
  82 00f4 91A921FB 		.word	-81679983
  83 00f8 60AC7C48 		.word	1216130144
  84 00fc 3280EC5D 		.word	1575780402
  85 0100 5D5D84EF 		.word	-276538019
  86 0104 B17585E9 		.word	-377129551
  87 0108 022326DC 		.word	-601480446
  88 010c 881B65EB 		.word	-345695352
  89 0110 813E8923 		.word	596196993
  90 0114 C5AC96D3 		.word	-745100091
  91 0118 F36F6D0F 		.word	258830323
  92 011c 3942F483 		.word	-2081144263
  93 0120 82440B2E 		.word	772490370
  94 0124 042084A4 		.word	-1534844924
  95 0128 4AF0C869 		.word	1774776394
  96 012c 5E9B1F9E 		.word	-1642095778
  97 0130 4268C621 		.word	566650946
  98 0134 9A6CE9F6 		.word	-152474470
  99 0138 619C0C67 		.word	1728879713
 100 013c F088D3AB 		.word	-1412200208
 101 0140 D2A0516A 		.word	1783734482
 102 0144 682F54D8 		.word	-665571480
 103 0148 28A70F96 		.word	-1777359064
 104 014c A33351AB 		.word	-1420741725
 105 0150 6C0BEF6E 		.word	1861159788
 106 0154 E43B7A13 		.word	326777828
 107 0158 50F03BBA 		.word	-1170476976
 108 015c 982AFB7E 		.word	2130389656
 109 0160 1D65F1A1 		.word	-1578015459
 110 0164 7601AF39 		.word	967770486
 111 0168 3E59CA66 		.word	1724537150
 112 016c 880E4382 		.word	-2109534584
 113 0170 1986EE8C 		.word	-1930525159
 114 0174 B49F6F45 		.word	1164943284
 115 0178 C3A5847D 		.word	2105845187
 116 017c BE5E8B3B 		.word	998989502
 117 0180 D8756FE0 		.word	-529566248
 118 0184 7320C185 		.word	-2050940813
 119 0188 9F441A40 		.word	1075463327
 120 018c A66AC156 		.word	1455516326
 121 0190 62AAD34E 		.word	1322494562
 122 0194 06773F36 		.word	910128902
 123 0198 72DFFE1B 		.word	469688178
 124 019c 3D029B42 		.word	1117454909
 125 01a0 24D7D037 		.word	936433444
 126 01a4 48120AD0 		.word	-804646328
 127 01a8 D3EA0FDB 		.word	-619713837
 128 01ac 9BC0F149 		.word	1240580251
 129 01b0 C9725307 		.word	122909385
 130 01b4 7B1B9980 		.word	-2137449605
 131 01b8 D879D425 		.word	634681816
 132 01bc F7DEE8F6 		.word	-152510729
 133 01c0 1A50FEE3 		.word	-469872614
 134 01c4 3B4C79B6 		.word	-1233564613
 135 01c8 BDE06C97 		.word	-1754472259
 136 01cc BA06C004 		.word	79693498
 137 01d0 B64FA9C1 		.word	-1045868618
 138 01d4 C4609F40 		.word	1084186820
 139 01d8 C29E5C5E 		.word	1583128258
 140 01dc 63246A19 		.word	426386531
 141 01e0 AF6FFB68 		.word	1761308591
 142 01e4 B5536C3E 		.word	1047286709
 143 01e8 EBB23913 		.word	322548459
 144 01ec 6FEC523B 		.word	995290223
 145 01f0 1F51FC6D 		.word	1845252383
 146 01f4 2C95309B 		.word	-1691314900
 147 01f8 444581CC 		.word	-863943356
 148 01fc 09BD5EAF 		.word	-1352745719
 149 0200 04D0E3BE 		.word	-1092366332
 150 0204 FD4A33DE 		.word	-567063811
 151 0208 07280F66 		.word	1712269319
 152 020c B34B2E19 		.word	422464435
 153 0210 57A8CBC0 		.word	-1060394921
 154 0214 0F74C845 		.word	1170764815
 155 0218 395F0BD2 		.word	-771006663
 156 021c DBFBD3B9 		.word	-1177289765
 157 0220 BDC07955 		.word	1434042557
 158 0224 0A32601A 		.word	442511882
 159 0228 C600A1D6 		.word	-694091578
 160 022c 79722C40 		.word	1076654713
 161 0230 FE259F67 		.word	1738483198
 162 0234 CCA31FFB 		.word	-81812532
 163 0238 F8E9A58E 		.word	-1901729288
 164 023c F82232DB 		.word	-617471240
 165 0240 DF16753C 		.word	1014306527
 166 0244 156B61FD 		.word	-43947243
 167 0248 C81E502F 		.word	793779912
 168 024c AB5205AD 		.word	-1392160085
 169 0250 FAB53D32 		.word	842905082
 170 0254 608723FD 		.word	-48003232
 171 0258 487B3153 		.word	1395751752
 172 025c 82DF003E 		.word	1040244610
 173 0260 BB575C9E 		.word	-1638115397
 174 0264 A08C6FCA 		.word	-898659168
 175 0268 2E56871A 		.word	445077038
 176 026c DB6917DF 		.word	-552113701
 177 0270 F6A842D5 		.word	-717051658
 178 0274 C3FF7E28 		.word	679411651
 179 0278 C63267AC 		.word	-1402522938
 180 027c 73554F8C 		.word	-1940957837
 181 0280 B0275B69 		.word	1767581616
 182 0284 C858CABB 		.word	-1144366904
 183 0288 5DA3FFE1 		.word	-503340195
 184 028c A011F0B8 		.word	-1192226400
 185 0290 983DFA10 		.word	284835224
 186 0294 B88321FD 		.word	-48135240
 187 0298 6CB5FC4A 		.word	1258075500
 188 029c 5BD3D12D 		.word	768725851
 189 02a0 79E4539A 		.word	-1705778055
 190 02a4 6545F8B6 		.word	-1225243291
 191 02a8 BC498ED2 		.word	-762426948
 192 02ac 9097FB4B 		.word	1274779536
 193 02b0 DAF2DDE1 		.word	-505548070
 194 02b4 337ECBA4 		.word	-1530167757
 195 02b8 4113FB62 		.word	1660621633
 196 02bc E8C6E4CE 		.word	-823867672
 197 02c0 DACA20EF 		.word	-283063590
 198 02c4 014C7736 		.word	913787905
 199 02c8 FE9E7ED0 		.word	-797008130
 200 02cc B41FF12B 		.word	737222580
 201 02d0 4DDADB95 		.word	-1780753843
 202 02d4 989190AE 		.word	-1366257256
 203 02d8 718EADEA 		.word	-357724559
 204 02dc A0D5936B 		.word	1804850592
 205 02e0 D0D18ED0 		.word	-795946544
 206 02e4 E025C7AF 		.word	-1345903136
 207 02e8 2F5B3C8E 		.word	-1908647121
 208 02ec B794758E 		.word	-1904896841
 209 02f0 FBE2F68F 		.word	-1879645445
 210 02f4 642B12F2 		.word	-233690268
 211 02f8 12B88888 		.word	-2004305902
 212 02fc 1CF00D90 		.word	-1878134756
 213 0300 A05EAD4F 		.word	1336762016
 214 0304 1CC38F68 		.word	1754252060
 215 0308 91F1CFD1 		.word	-774901359
 216 030c ADC1A8B3 		.word	-1280786003
 217 0310 18222F2F 		.word	791618072
 218 0314 77170EBE 		.word	-1106372745
 219 0318 FE2D75EA 		.word	-361419266
 220 031c A11F028B 		.word	-1962795103
 221 0320 0FCCA0E5 		.word	-442446833
 222 0324 E8746FB5 		.word	-1250986776
 223 0328 D6F3AC18 		.word	413987798
 224 032c 99E289CE 		.word	-829824359
 225 0330 E04FA8B4 		.word	-1264037920
 226 0334 B7E013FD 		.word	-49028937
 227 0338 813BC47C 		.word	2093235073
 228 033c D9A8ADD2 		.word	-760370983
 229 0340 66A25F16 		.word	375366246
 230 0344 05779580 		.word	-2137688315
 231 0348 1473CC93 		.word	-1815317740
 232 034c 77141A21 		.word	555357303
 233 0350 6520ADE6 		.word	-424861595
 234 0354 86FAB577 		.word	2008414854
 235 0358 F54254C7 		.word	-950779147
 236 035c CF359DFB 		.word	-73583153
 237 0360 0CAFCDEB 		.word	-338841844
 238 0364 A0893E7B 		.word	2067696032
 239 0368 D31B41D6 		.word	-700376109
 240 036c 497E1EAE 		.word	-1373733303
 241 0370 2D0E2500 		.word	2428461
 242 0374 5EB37120 		.word	544322398
 243 0378 BB006822 		.word	577241275
 244 037c AFE0B857 		.word	1471733935
 245 0380 9B366424 		.word	610547355
 246 0384 1EB909F0 		.word	-267798242
 247 0388 1D916355 		.word	1432588573
 248 038c AAA6DF59 		.word	1507829418
 249 0390 8943C178 		.word	2025931657
 250 0394 7F535AD9 		.word	-648391809
 251 0398 A25B7D20 		.word	545086370
 252 039c C5B9E502 		.word	48609733
 253 03a0 76032683 		.word	-2094660746
 254 03a4 A9CF9562 		.word	1653985193
 255 03a8 6819C811 		.word	298326376
 256 03ac 414A734E 		.word	1316178497
 257 03b0 CA2D47B3 		.word	-1287180854
 258 03b4 4AA9147B 		.word	2064951626
 259 03b8 5200511B 		.word	458293330
 260 03bc 1529539A 		.word	-1705826027
 261 03c0 3F570FD6 		.word	-703637697
 262 03c4 E4C69BBC 		.word	-1130641692
 263 03c8 76A4602B 		.word	727753846
 264 03cc 0074E681 		.word	-2115603456
 265 03d0 B56FBA08 		.word	146436021
 266 03d4 1FE91B57 		.word	1461446943
 267 03d8 6BEC96F2 		.word	-224990101
 268 03dc 15D90D2A 		.word	705550613
 269 03e0 216563B6 		.word	-1235000031
 270 03e4 B6F9B9E7 		.word	-407242314
 271 03e8 2E0534FF 		.word	-13368018
 272 03ec 645685C5 		.word	-981117340
 273 03f0 5D2DB053 		.word	1404054877
 274 03f4 A18F9FA9 		.word	-1449160799
 275 03f8 9947BA08 		.word	146425753
 276 03fc 6A07856E 		.word	1854211946
 277 0400 E9707A4B 		.word	1266315497
 278 0404 4429B3B5 		.word	-1246549692
 279 0408 2E0975DB 		.word	-613086930
 280 040c 232619C4 		.word	-1004984797
 281 0410 B0A66EAD 		.word	-1385257296
 282 0414 7DDFA749 		.word	1235738493
 283 0418 B860EE9C 		.word	-1662099272
 284 041c 66B2ED8F 		.word	-1880247706
 285 0420 718CAAEC 		.word	-324367247
 286 0424 FF179A69 		.word	1771706367
 287 0428 6C526456 		.word	1449415276
 288 042c E19EB1C2 		.word	-1028546847
 289 0430 A5023619 		.word	422970021
 290 0434 294C0975 		.word	1963543593
 291 0438 401359A0 		.word	-1604775104
 292 043c 3E3A18E4 		.word	-468174274
 293 0440 9A98543F 		.word	1062508698
 294 0444 659D425B 		.word	1531092325
 295 0448 D6E48F6B 		.word	1804592342
 296 044c D63FF799 		.word	-1711849514
 297 0450 079CD2A1 		.word	-1580033017
 298 0454 F530E8EF 		.word	-269995787
 299 0458 E6382D4D 		.word	1294809318
 300 045c C15D25F0 		.word	-265986623
 301 0460 8620DD4C 		.word	1289560198
 302 0464 26EB7084 		.word	-2072974554
 303 0468 C6E98263 		.word	1669523910
 304 046c 5ECC1E02 		.word	35572830
 305 0470 3F6B6809 		.word	157838143
 306 0474 C9EFBA3E 		.word	1052438473
 307 0478 1418973C 		.word	1016535060
 308 047c A1706A6B 		.word	1802137761
 309 0480 84357F68 		.word	1753167236
 310 0484 86E2A052 		.word	1386275462
 311 0488 05539CB7 		.word	-1214491899
 312 048c 370750AA 		.word	-1437595849
 313 0490 1C84073E 		.word	1040679964
 314 0494 5CAEDE7F 		.word	2145300060
 315 0498 EC447D8E 		.word	-1904392980
 316 049c B8F21657 		.word	1461121720
 317 04a0 37DA3AB0 		.word	-1338320329
 318 04a4 0D0C50F0 		.word	-263189491
 319 04a8 041F1CF0 		.word	-266592508
 320 04ac FFB30002 		.word	33600511
 321 04b0 1AF50CAE 		.word	-1374882534
 322 04b4 B274B53C 		.word	1018524850
 323 04b8 587A8325 		.word	629373528
 324 04bc BD2109DC 		.word	-603381315
 325 04c0 F91391D1 		.word	-779021319
 326 04c4 F62FA97C 		.word	2091462646
 327 04c8 73473294 		.word	-1808644237
 328 04cc 0147F522 		.word	586499841
 329 04d0 81E5E53A 		.word	988145025
 330 04d4 DCDAC237 		.word	935516892
 331 04d8 3476B5C8 		.word	-927631820
 332 04dc A7DDF39A 		.word	-1695294041
 333 04e0 466144A9 		.word	-1455136442
 334 04e4 0E03D00F 		.word	265290510
 335 04e8 3EC7C8EC 		.word	-322386114
 336 04ec 411E75A4 		.word	-1535828415
 337 04f0 99CD38E2 		.word	-499593831
 338 04f4 2F0EEA3B 		.word	1005194799
 339 04f8 A1BB8032 		.word	847297441
 340 04fc 31B33E18 		.word	406762289
 341 0500 388B544E 		.word	1314163512
 342 0504 08B96D4F 		.word	1332590856
 343 0508 030D426F 		.word	1866599683
 344 050c BF040AF6 		.word	-167115585
 345 0510 9012B82C 		.word	750260880
 346 0514 797C9724 		.word	613907577
 347 0518 72B07956 		.word	1450815602
 348 051c AF89AFBC 		.word	-1129346641
 349 0520 1F779ADE 		.word	-560302305
 350 0524 100893D9 		.word	-644675568
 351 0528 12AE8BB3 		.word	-1282691566
 352 052c 2E3FCFDC 		.word	-590397650
 353 0530 1F721255 		.word	1427272223
 354 0534 24716B2E 		.word	778793252
 355 0538 E6DD1A50 		.word	1343938022
 356 053c 87CD849F 		.word	-1618686585
 357 0540 1847587A 		.word	2052605720
 358 0544 17DA0874 		.word	1946737175
 359 0548 BC9A9FBC 		.word	-1130390852
 360 054c 8C7D4BE9 		.word	-380928628
 361 0550 3AEC7AEC 		.word	-327488454
 362 0554 FA1D85DB 		.word	-612033030
 363 0558 66430963 		.word	1661551462
 364 055c D2C364C4 		.word	-1000029230
 365 0560 47181CEF 		.word	-283371449
 366 0564 08D91532 		.word	840292616
 367 0568 373B43DD 		.word	-582796489
 368 056c 16BAC224 		.word	616741398
 369 0570 434DA112 		.word	312560963
 370 0574 51C4652A 		.word	711312465
 371 0578 02009450 		.word	1351876610
 372 057c DDE43A13 		.word	322626781
 373 0580 9EF8DF71 		.word	1910503582
 374 0584 554E3110 		.word	271666773
 375 0588 D677AC81 		.word	-2119403562
 376 058c 9B19115F 		.word	1594956187
 377 0590 F1563504 		.word	70604529
 378 0594 6BC7A3D7 		.word	-677132437
 379 0598 3B18113C 		.word	1007753275
 380 059c 09A52459 		.word	1495573769
 381 05a0 EDE68FF2 		.word	-225450259
 382 05a4 FAFBF197 		.word	-1745748998
 383 05a8 2CBFBA9E 		.word	-1631928532
 384 05ac 6E3C151E 		.word	504708206
 385 05b0 7045E386 		.word	-2031925904
 386 05b4 B16FE9EA 		.word	-353800271
 387 05b8 0A5E0E86 		.word	-2045878774
 388 05bc B32A3E5A 		.word	1514023603
 389 05c0 1CE71F77 		.word	1998579484
 390 05c4 FA063D4E 		.word	1312622330
 391 05c8 B9DC6529 		.word	694541497
 392 05cc 0F1DE799 		.word	-1712906993
 393 05d0 D6893E80 		.word	-2143385130
 394 05d4 25C86652 		.word	1382467621
 395 05d8 78C94C2E 		.word	776784248
 396 05dc 6AB3109C 		.word	-1676627094
 397 05e0 BA0E15C6 		.word	-971698502
 398 05e4 78EAE294 		.word	-1797068168
 399 05e8 533CFCA5 		.word	-1510196141
 400 05ec F42D0A1E 		.word	503983604
 401 05f0 A74EF7F2 		.word	-218673497
 402 05f4 3D2B1D36 		.word	907881277
 403 05f8 0F263919 		.word	423175695
 404 05fc 6079C219 		.word	432175456
 405 0600 08A72352 		.word	1378068232
 406 0604 B61213F7 		.word	-149744970
 407 0608 6EFEADEB 		.word	-340918674
 408 060c 661FC3EA 		.word	-356311194
 409 0610 9545BCE3 		.word	-474200683
 410 0614 83C87BA6 		.word	-1501837181
 411 0618 D1377FB1 		.word	-1317062703
 412 061c 28FF8C01 		.word	26017576
 413 0620 EFDD32C3 		.word	-1020076561
 414 0624 A55A6CBE 		.word	-1100195163
 415 0628 85215865 		.word	1700274565
 416 062c 0298AB68 		.word	1756076034
 417 0630 0FA5CEEE 		.word	-288447217
 418 0634 3B952FDB 		.word	-617638597
 419 0638 AD7DEF2A 		.word	720338349
 420 063c 842F6E5B 		.word	1533947780
 421 0640 28B62115 		.word	354530856
 422 0644 70610729 		.word	688349552
 423 0648 7547DDEC 		.word	-321042571
 424 064c 10159F61 		.word	1637815568
 425 0650 30A8CC13 		.word	332179504
 426 0654 96BD61EB 		.word	-345916010
 427 0658 1EFE3403 		.word	53804574
 428 065c CF6303AA 		.word	-1442618417
 429 0660 905C73B5 		.word	-1250730864
 430 0664 39A2704C 		.word	1282449977
 431 0668 0B9E9ED5 		.word	-711025141
 432 066c 14DEAACB 		.word	-877994476
 433 0670 BC86CCEE 		.word	-288586052
 434 0674 A72C6260 		.word	1617046695
 435 0678 AB5CAB9C 		.word	-1666491221
 436 067c 6E84F3B2 		.word	-1292663698
 437 0680 AF1E8B64 		.word	1686838959
 438 0684 CAF0BD19 		.word	431878346
 439 0688 B96923A0 		.word	-1608291911
 440 068c 50BB5A65 		.word	1700445008
 441 0690 325A6840 		.word	1080580658
 442 0694 B3B42A3C 		.word	1009431731
 443 0698 D5E99E31 		.word	832498133
 444 069c F7B821C0 		.word	-1071531785
 445 06a0 190B549B 		.word	-1688990951
 446 06a4 99A05F87 		.word	-2023776103
 447 06a8 7E99F795 		.word	-1778935426
 448 06ac A87D3D62 		.word	1648197032
 449 06b0 9A8837F8 		.word	-130578278
 450 06b4 772DE397 		.word	-1746719369
 451 06b8 5F93ED11 		.word	300782431
 452 06bc 81126816 		.word	375919233
 453 06c0 2988350E 		.word	238389289
 454 06c4 D61FE6C7 		.word	-941219882
 455 06c8 A1DFDE96 		.word	-1763778655
 456 06cc 99BA5878 		.word	2019080857
 457 06d0 A584F557 		.word	1475708069
 458 06d4 6372221B 		.word	455242339
 459 06d8 FFC3839B 		.word	-1685863425
 460 06dc 9646C21A 		.word	448939670
 461 06e0 EB0AB3CD 		.word	-843904277
 462 06e4 54302E53 		.word	1395535956
 463 06e8 E448D98F 		.word	-1881585436
 464 06ec 2831BC6D 		.word	1841049896
 465 06f0 EFF2EB58 		.word	1491858159
 466 06f4 EAFFC634 		.word	885456874
 467 06f8 61ED28FE 		.word	-30872223
 468 06fc 733C7CEE 		.word	-293847949
 469 0700 D9144A5D 		.word	1565136089
 470 0704 E3B764E8 		.word	-396052509
 471 0708 145D1042 		.word	1108368660
 472 070c E0133E20 		.word	540939232
 473 0710 B6E2EE45 		.word	1173283510
 474 0714 EAABAAA3 		.word	-1549095958
 475 0718 154F6CDB 		.word	-613658859
 476 071c D04FCBFA 		.word	-87339056
 477 0720 42F442C7 		.word	-951913406
 478 0724 B5BB6AEF 		.word	-278217803
 479 0728 1D3B4F65 		.word	1699691293
 480 072c 0521CD41 		.word	1103962373
 481 0730 9E791ED8 		.word	-669091426
 482 0734 C74D8586 		.word	-2038084153
 483 0738 6A474BE4 		.word	-464828566
 484 073c 5062813D 		.word	1031889488
 485 0740 F2A162CF 		.word	-815619598
 486 0744 46268D5B 		.word	1535977030
 487 0748 A08388FC 		.word	-58162272
 488 074c A3B6C7C1 		.word	-1043876189
 489 0750 C324157F 		.word	2132092099
 490 0754 9274CB69 		.word	1774941330
 491 0758 0B8A8447 		.word	1199868427
 492 075c 85B29256 		.word	1452454533
 493 0760 00BF5B09 		.word	157007616
 494 0764 9D4819AD 		.word	-1390851939
 495 0768 74B16214 		.word	342012276
 496 076c 000E8223 		.word	595725824
 497 0770 2A8D4258 		.word	1480756522
 498 0774 EAF5550C 		.word	206960106
 499 0778 3EF4AD1D 		.word	497939518
 500 077c 61703F23 		.word	591360097
 501 0780 92F07233 		.word	863170706
 502 0784 417E938D 		.word	-1919713727
 503 0788 F1EC5FD6 		.word	-698356495
 504 078c DB3B226C 		.word	1814182875
 505 0790 5937DE7C 		.word	2094937945
 506 0794 6074EECB 		.word	-873565088
 507 0798 A7F28540 		.word	1082520231
 508 079c 6E3277CE 		.word	-831049106
 509 07a0 848007A6 		.word	-1509457788
 510 07a4 9E50F819 		.word	435703966
 511 07a8 55D8EFE8 		.word	-386934699
 512 07ac 3597D961 		.word	1641649973
 513 07b0 AAA769A9 		.word	-1452693590
 514 07b4 C2060CC5 		.word	-989067582
 515 07b8 FCAB045A 		.word	1510255612
 516 07bc DCCA0B80 		.word	-2146710820
 517 07c0 2E7A449E 		.word	-1639679442
 518 07c4 843445C3 		.word	-1018874748
 519 07c8 0567D5FD 		.word	-36346107
 520 07cc C99E1E0E 		.word	236887753
 521 07d0 D3DB73DB 		.word	-613164077
 522 07d4 CD885510 		.word	274041037
 523 07d8 79DA5F67 		.word	1734335097
 524 07dc 404367E3 		.word	-479771840
 525 07e0 6534C4C5 		.word	-976997275
 526 07e4 D8383E71 		.word	1899903192
 527 07e8 9EF8283D 		.word	1026095262
 528 07ec 20FF6DF1 		.word	-244449504
 529 07f0 E7213E15 		.word	356393447
 530 07f4 4A3DB08F 		.word	-1884275382
 531 07f8 2B9FE3E6 		.word	-421290197
 532 07fc F7AD83DB 		.word	-612127241
 533 0800 685A3DE9 		.word	-381855128
 534 0804 F7408194 		.word	-1803468553
 535 0808 1C264CF6 		.word	-162781668
 536 080c 34296994 		.word	-1805047500
 537 0810 F7201541 		.word	1091903735
 538 0814 F7D40276 		.word	1979897079
 539 0818 2E6BF4BC 		.word	-1124832466
 540 081c 6800A2D4 		.word	-727580568
 541 0820 712408D4 		.word	-737663887
 542 0824 6AF42033 		.word	857797738
 543 0828 B7D4B743 		.word	1136121015
 544 082c AF610050 		.word	1342202287
 545 0830 2EF6391E 		.word	507115054
 546 0834 46452497 		.word	-1759230650
 547 0838 744F2114 		.word	337727348
 548 083c 40888BBF 		.word	-1081374656
 549 0840 1DFC954D 		.word	1301675037
 550 0844 AF91B596 		.word	-1766485585
 551 0848 D3DDF470 		.word	1895095763
 552 084c 452FA066 		.word	1721773893
 553 0850 EC09BCBF 		.word	-1078195732
 554 0854 8597BD03 		.word	62756741
 555 0858 D06DAC7F 		.word	2142006736
 556 085c 0485CB31 		.word	835421444
 557 0860 B327EB96 		.word	-1762973773
 558 0864 4139FD55 		.word	1442658625
 559 0868 E64725DA 		.word	-635090970
 560 086c 9A0ACAAB 		.word	-1412822374
 561 0870 25785028 		.word	676362277
 562 0874 F4290453 		.word	1392781812
 563 0878 DA862C0A 		.word	170690266
 564 087c FB6DB6E9 		.word	-373920261
 565 0880 6214DC68 		.word	1759253602
 566 0884 006948D7 		.word	-683120384
 567 0888 A4C00E68 		.word	1745797284
 568 088c EE8DA127 		.word	664899054
 569 0890 A2FE3F4F 		.word	1329594018
 570 0894 8CAD87E8 		.word	-393761396
 571 0898 06E08CB5 		.word	-1249058810
 572 089c B6D6F47A 		.word	2062866102
 573 08a0 7C1ECEAA 		.word	-1429332356
 574 08a4 EC5F37D3 		.word	-751345684
 575 08a8 99A378CE 		.word	-830954599
 576 08ac 422A6B40 		.word	1080764994
 577 08b0 359EFE20 		.word	553557557
 578 08b4 B985F3D9 		.word	-638351943
 579 08b8 ABD739EE 		.word	-298199125
 580 08bc 8B4E123B 		.word	991055499
 581 08c0 F7FAC91D 		.word	499776247
 582 08c4 56186D4B 		.word	1265440854
 583 08c8 3166A326 		.word	648242737
 584 08cc B297E3EA 		.word	-354183246
 585 08d0 74FA6E3A 		.word	980351604
 586 08d4 32435BDD 		.word	-581221582
 587 08d8 F7E74168 		.word	1749149687
 588 08dc FB2078CA 		.word	-898096901
 589 08e0 4EF50AFB 		.word	-83167922
 590 08e4 97B3FED8 		.word	-654396521
 591 08e8 AC564045 		.word	1161844396
 592 08ec 279548BA 		.word	-1169648345
 593 08f0 3A3A5355 		.word	1431517754
 594 08f4 878D8320 		.word	545492359
 595 08f8 B7A96BFE 		.word	-26498633
 596 08fc 4B9596D0 		.word	-795437749
 597 0900 BC67A855 		.word	1437099964
 598 0904 589A15A1 		.word	-1592419752
 599 0908 6329A9CC 		.word	-861329053
 600 090c 33DBE199 		.word	-1713251533
 601 0910 564A2AA6 		.word	-1507177898
 602 0914 F925313F 		.word	1060185593
 603 0918 1C7EF45E 		.word	1593081372
 604 091c 7C312990 		.word	-1876348548
 605 0920 02E8F8FD 		.word	-34019326
 606 0924 702F2704 		.word	69676912
 607 0928 5C15BB80 		.word	-2135222948
 608 092c E32C2805 		.word	86519011
 609 0930 4815C195 		.word	-1782508216
 610 0934 226DC6E4 		.word	-456757982
 611 0938 3F13C148 		.word	1220612927
 612 093c DC860FC7 		.word	-955283748
 613 0940 EEC9F907 		.word	133810670
 614 0944 0F1F0441 		.word	1090789135
 615 0948 A4794740 		.word	1078426020
 616 094c 176E885D 		.word	1569222167
 617 0950 EB515F32 		.word	845107691
 618 0954 D1C09BD5 		.word	-711212847
 619 0958 8FC1BCF2 		.word	-222510705
 620 095c 64351141 		.word	1091646820
 621 0960 34787B25 		.word	628848692
 622 0964 609C2A60 		.word	1613405280
 623 0968 A3E8F8DF 		.word	-537335645
 624 096c 1B6C631F 		.word	526609435
 625 0970 C2B4120E 		.word	236106946
 626 0974 9E32E102 		.word	48312990
 627 0978 D14F66AF 		.word	-1352249391
 628 097c 1581D1CA 		.word	-892239595
 629 0980 E095236B 		.word	1797494240
 630 0984 E1923E33 		.word	859738849
 631 0988 620B243B 		.word	992217954
 632 098c 22B9BEEE 		.word	-289490654
 633 0990 0EA2B285 		.word	-2051890674
 634 0994 990DBAE6 		.word	-424014439
 635 0998 8C0C72DE 		.word	-562951028
 636 099c 28F7A22D 		.word	765654824
 637 09a0 457812D0 		.word	-804095931
 638 09a4 FD94B795 		.word	-1783130883
 639 09a8 62087D64 		.word	1685915746
 640 09ac F0F5CCE7 		.word	-405998096
 641 09b0 6FA34954 		.word	1414112111
 642 09b4 FA487D87 		.word	-2021832454
 643 09b8 27FD9DC3 		.word	-1013056217
 644 09bc 1E8D3EF3 		.word	-214004450
 645 09c0 4163470A 		.word	172450625
 646 09c4 74FF2E99 		.word	-1724973196
 647 09c8 AB6E6F3A 		.word	980381355
 648 09cc 37FDF8F4 		.word	-185008841
 649 09d0 60DC12A8 		.word	-1475158944
 650 09d4 F8DDEBA1 		.word	-1578377736
 651 09d8 4CE11B99 		.word	-1726226100
 652 09dc 0D6B6EDB 		.word	-613520627
 653 09e0 10557BC6 		.word	-964995824
 654 09e4 372C676D 		.word	1835478071
 655 09e8 3BD46527 		.word	660984891
 656 09ec 04E8D0DC 		.word	-590288892
 657 09f0 C70D29F1 		.word	-248967737
 658 09f4 A3FF00CC 		.word	-872349789
 659 09f8 920F39B5 		.word	-1254551662
 660 09fc 0BED0F69 		.word	1762651403
 661 0a00 FB9F7B66 		.word	1719377915
 662 0a04 9C7DDBCE 		.word	-824476260
 663 0a08 0BCF91A0 		.word	-1601057013
 664 0a0c A35E15D9 		.word	-652910941
 665 0a10 882F13BB 		.word	-1156370552
 666 0a14 24AD5B51 		.word	1364962596
 667 0a18 BF79947B 		.word	2073328063
 668 0a1c EBD63B76 		.word	1983633131
 669 0a20 B32E3937 		.word	926494387
 670 0a24 795911CC 		.word	-871278215
 671 0a28 97E22680 		.word	-2144935273
 672 0a2c 2D312EF4 		.word	-198299347
 673 0a30 A7AD4268 		.word	1749200295
 674 0a34 3B2B6AC6 		.word	-966120645
 675 0a38 CC4C7512 		.word	309677260
 676 0a3c 1CF12E78 		.word	2016342300
 677 0a40 3742126A 		.word	1779581495
 678 0a44 E75192B7 		.word	-1215147545
 679 0a48 E6BBA106 		.word	111262694
 680 0a4c 5063FB4B 		.word	1274766160
 681 0a50 18106B1A 		.word	443224088
 682 0a54 FAEDCA11 		.word	298511866
 683 0a58 D8BD253D 		.word	1025883608
 684 0a5c C9C3E1E2 		.word	-488520759
 685 0a60 59164244 		.word	1145181785
 686 0a64 8613120A 		.word	168956806
 687 0a68 6EEC0CD9 		.word	-653464466
 688 0a6c 2AEAABD5 		.word	-710153686
 689 0a70 4E67AF64 		.word	1689216846
 690 0a74 5FA886DA 		.word	-628709281
 691 0a78 88E9BFBE 		.word	-1094719096
 692 0a7c FEC3E464 		.word	1692713982
 693 0a80 5780BC9D 		.word	-1648590761
 694 0a84 86C0F7F0 		.word	-252198778
 695 0a88 F87B7860 		.word	1618508792
 696 0a8c 4D600360 		.word	1610833997
 697 0a90 4683FDD1 		.word	-771914938
 698 0a94 B01F38F6 		.word	-164094032
 699 0a98 04AE4577 		.word	2001055236
 700 0a9c CCFC36D7 		.word	-684262196
 701 0aa0 336B4283 		.word	-2092799181
 702 0aa4 71AB1EF0 		.word	-266425487
 703 0aa8 874180B0 		.word	-1333771897
 704 0aac 5F5E003C 		.word	1006657119
 705 0ab0 BE57A077 		.word	2006996926
 706 0ab4 24AEE8BD 		.word	-1108824540
 707 0ab8 99424655 		.word	1430667929
 708 0abc 612E58BF 		.word	-1084739999
 709 0ac0 8FF4584E 		.word	1314452623
 710 0ac4 A2FDDDF2 		.word	-220332638
 711 0ac8 38EF74F4 		.word	-193663176
 712 0acc C2BD8987 		.word	-2021016126
 713 0ad0 C3F96653 		.word	1399257539
 714 0ad4 748EB3C8 		.word	-927756684
 715 0ad8 55F275B4 		.word	-1267338667
 716 0adc B9D9FC46 		.word	1190975929
 717 0ae0 6126EB7A 		.word	2062231137
 718 0ae4 84DF1D8B 		.word	-1960976508
 719 0ae8 790E6A84 		.word	-2073424263
 720 0aec E2955F91 		.word	-1856006686
 721 0af0 8E596E46 		.word	1181637006
 722 0af4 7057B420 		.word	548689776
 723 0af8 9155D58C 		.word	-1932175983
 724 0afc 4CDE02C9 		.word	-922558900
 725 0b00 E1AC0BB9 		.word	-1190417183
 726 0b04 D00582BB 		.word	-1149106736
 727 0b08 4862A811 		.word	296247880
 728 0b0c 9EA97475 		.word	1970579870
 729 0b10 B6197FB7 		.word	-1216407114
 730 0b14 09DCA9E0 		.word	-525738999
 731 0b18 A1092D66 		.word	1714227617
 732 0b1c 334632C4 		.word	-1003338189
 733 0b20 021F5AE8 		.word	-396747006
 734 0b24 8CBEF009 		.word	166772364
 735 0b28 25A0994A 		.word	1251581989
 736 0b2c 10FE6E1D 		.word	493813264
 737 0b30 1D3DB91A 		.word	448347421
 738 0b34 DFA4A50B 		.word	195405023
 739 0b38 0FF286A1 		.word	-1584991729
 740 0b3c 69F16828 		.word	677966185
 741 0b40 83DAB7DC 		.word	-591930749
 742 0b44 FE063957 		.word	1463355134
 743 0b48 9BCEE2A1 		.word	-1578971493
 744 0b4c 527FCD4F 		.word	1338867538
 745 0b50 015E1150 		.word	1343315457
 746 0b54 FA8306A7 		.word	-1492745222
 747 0b58 C4B502A0 		.word	-1610435132
 748 0b5c 27D0E60D 		.word	233230375
 749 0b60 278CF89A 		.word	-1694987225
 750 0b64 41863F77 		.word	2000651841
 751 0b68 064C60C3 		.word	-1017099258
 752 0b6c B506A861 		.word	1638401717
 753 0b70 287A17F0 		.word	-266896856
 754 0b74 E086F5C0 		.word	-1057650976
 755 0b78 AA586000 		.word	6314154
 756 0b7c 627DDC30 		.word	819756386
 757 0b80 D79EE611 		.word	300326615
 758 0b84 63EA3823 		.word	590932579
 759 0b88 94DDC253 		.word	1405279636
 760 0b8c 3416C2C2 		.word	-1027467724
 761 0b90 56EECBBB 		.word	-1144263082
 762 0b94 DEB6BC90 		.word	-1866680610
 763 0b98 A17DFCEB 		.word	-335774303
 764 0b9c 761D59CE 		.word	-833020554
 765 0ba0 09E4056F 		.word	1862657033
 766 0ba4 88017C4B 		.word	1266418056
 767 0ba8 3D0A7239 		.word	963775037
 768 0bac 247C927C 		.word	2089974820
 769 0bb0 5F72E386 		.word	-2031914401
 770 0bb4 B99D4D72 		.word	1917689273
 771 0bb8 B45BC11A 		.word	448879540
 772 0bbc FCB89ED3 		.word	-744572676
 773 0bc0 785554ED 		.word	-313240200
 774 0bc4 B5A5FC08 		.word	150775221
 775 0bc8 D37C3DD8 		.word	-667058989
 776 0bcc C40FAD4D 		.word	1303187396
 777 0bd0 5EEF501E 		.word	508620638
 778 0bd4 F8E661B1 		.word	-1318983944
 779 0bd8 D91485A2 		.word	-1568336679
 780 0bdc 3C13516C 		.word	1817252668
 781 0be0 E7C7D56F 		.word	1876281319
 782 0be4 C44EE156 		.word	1457606340
 783 0be8 CEBF2A36 		.word	908771278
 784 0bec 37C8C6DD 		.word	-574175177
 785 0bf0 34329AD7 		.word	-677760460
 786 0bf4 12826392 		.word	-1838972398
 787 0bf8 8EFA0E67 		.word	1729034894
 788 0bfc E0006040 		.word	1080033504
 789 0c00 37CE393A 		.word	976866871
 790 0c04 CFF5FAD3 		.word	-738527793
 791 0c08 3777C2AB 		.word	-1413318857
 792 0c0c 1B2DC55A 		.word	1522871579
 793 0c10 9E67B05C 		.word	1555064734
 794 0c14 4237A34F 		.word	1336096578
 795 0c18 402782D3 		.word	-746444992
 796 0c1c BE9BBC99 		.word	-1715692610
 797 0c20 9D8E11D5 		.word	-720269667
 798 0c24 15730FBF 		.word	-1089506539
 799 0c28 7E1C2DD6 		.word	-701686658
 800 0c2c 7BC400C7 		.word	-956251013
 801 0c30 6B1B8CB7 		.word	-1215554709
 802 0c34 4590A121 		.word	564236357
 803 0c38 BEB16EB2 		.word	-1301368386
 804 0c3c B46E366A 		.word	1781952180
 805 0c40 2FAB4857 		.word	1464380207
 806 0c44 796E94BC 		.word	-1131123079
 807 0c48 D276A3C6 		.word	-962365742
 808 0c4c C8C24965 		.word	1699332808
 809 0c50 EEF80F53 		.word	1393555694
 810 0c54 7DDE8D46 		.word	1183702653
 811 0c58 1D0A73D5 		.word	-713881059
 812 0c5c C64DD04C 		.word	1288719814
 813 0c60 DBBB3929 		.word	691649499
 814 0c64 5046BAA9 		.word	-1447410096
 815 0c68 E82695AC 		.word	-1399511320
 816 0c6c 04E35EBE 		.word	-1101077756
 817 0c70 F0D5FAA1 		.word	-1577396752
 818 0c74 9A512D6A 		.word	1781354906
 819 0c78 E28CEF63 		.word	1676643554
 820 0c7c 22EE869A 		.word	-1702433246
 821 0c80 B8C289C0 		.word	-1064713544
 822 0c84 F62E2443 		.word	1126444790
 823 0c88 AA031EA5 		.word	-1524759638
 824 0c8c A4D0F29C 		.word	-1661808476
 825 0c90 BA61C083 		.word	-2084544070
 826 0c94 4D6AE99B 		.word	-1679201715
 827 0c98 5015E58F 		.word	-1880812208
 828 0c9c D65B64BA 		.word	-1167828010
 829 0ca0 F9A22628 		.word	673620729
 830 0ca4 E13A3AA7 		.word	-1489356063
 831 0ca8 8695A94B 		.word	1269405062
 832 0cac E96255EF 		.word	-279616791
 833 0cb0 D3EF2FC7 		.word	-953159725
 834 0cb4 DAF752F7 		.word	-145557542
 835 0cb8 696F043F 		.word	1057255273
 836 0cbc 590AFA77 		.word	2012875353
 837 0cc0 15A9E480 		.word	-2132498155
 838 0cc4 0186B087 		.word	-2018474495
 839 0cc8 ADE6099B 		.word	-1693849939
 840 0ccc 93E53E3B 		.word	993977747
 841 0cd0 5AFD90E9 		.word	-376373926
 842 0cd4 97D7349E 		.word	-1640704105
 843 0cd8 D9B7F02C 		.word	753973209
 844 0cdc 518B2B02 		.word	36408145
 845 0ce0 3AACD596 		.word	-1764381638
 846 0ce4 7DA67D01 		.word	25011837
 847 0ce8 D63ECFD1 		.word	-774947114
 848 0cec 282D7D7C 		.word	2088578344
 849 0cf0 CF259F1F 		.word	530523599
 850 0cf4 9BB8F2AD 		.word	-1376601957
 851 0cf8 72B4D65A 		.word	1524020338
 852 0cfc 4CF5885A 		.word	1518925132
 853 0d00 71AC29E0 		.word	-534139791
 854 0d04 E6A519E0 		.word	-535190042
 855 0d08 FDACB047 		.word	1202760957
 856 0d0c 9BFA93ED 		.word	-309069157
 857 0d10 8DC4D3E8 		.word	-388774771
 858 0d14 CC573B28 		.word	674977740
 859 0d18 2966D5F8 		.word	-120232407
 860 0d1c 282E1379 		.word	2031300136
 861 0d20 91015F78 		.word	2019492241
 862 0d24 556075ED 		.word	-311074731
 863 0d28 440E96F7 		.word	-141160892
 864 0d2c 8C5ED3E3 		.word	-472686964
 865 0d30 D46D0515 		.word	352677332
 866 0d34 BA6DF488 		.word	-1997247046
 867 0d38 2561A103 		.word	60907813
 868 0d3c BDF06405 		.word	90501309
 869 0d40 159EEBC3 		.word	-1007968747
 870 0d44 A257903C 		.word	1016092578
 871 0d48 EC1A2797 		.word	-1759044884
 872 0d4c 2A073AA9 		.word	-1455814870
 873 0d50 9B6D3F1B 		.word	457141659
 874 0d54 F521631E 		.word	509813237
 875 0d58 FB669CF5 		.word	-174299397
 876 0d5c 19F3DC26 		.word	652014361
 877 0d60 28D93375 		.word	1966332200
 878 0d64 F5FD55B1 		.word	-1319764491
 879 0d68 82345603 		.word	55981186
 880 0d6c BB3CBA8A 		.word	-1967506245
 881 0d70 11775128 		.word	676427537
 882 0d74 F8D90AC2 		.word	-1039476232
 883 0d78 6751CCAB 		.word	-1412673177
 884 0d7c 5F92ADCC 		.word	-861040033
 885 0d80 5117E84D 		.word	1307055953
 886 0d84 8EDC3038 		.word	942726286
 887 0d88 62589D37 		.word	933058658
 888 0d8c 91F92093 		.word	-1826555503
 889 0d90 C2907AEA 		.word	-361066302
 890 0d94 CE7B3EFB 		.word	-79791154
 891 0d98 64CE2151 		.word	1361170020
 892 0d9c 32BE4F77 		.word	2001714738
 893 0da0 7EE3B6A8 		.word	-1464409218
 894 0da4 463D29C3 		.word	-1020707514
 895 0da8 6953DE48 		.word	1222529897
 896 0dac 80E61364 		.word	1679025792
 897 0db0 1008AEA2 		.word	-1565652976
 898 0db4 24B26DDD 		.word	-580013532
 899 0db8 FD2D8569 		.word	1770335741
 900 0dbc 66210709 		.word	151462246
 901 0dc0 0A469AB3 		.word	-1281735158
 902 0dc4 DDC04564 		.word	1682292957
 903 0dc8 CFDE6C58 		.word	1483529935
 904 0dcc AEC8201C 		.word	471910574
 905 0dd0 DDF7BE5B 		.word	1539241949
 906 0dd4 408D581B 		.word	458788160
 907 0dd8 7F01D2CC 		.word	-858652289
 908 0ddc BBE3B46B 		.word	1807016891
 909 0de0 7E6AA2DD 		.word	-576558466
 910 0de4 45FF593A 		.word	978976581
 911 0de8 440A353E 		.word	1043663428
 912 0dec D5CDB4BC 		.word	-1129001515
 913 0df0 A8CEEA72 		.word	1927990952
 914 0df4 BB8464FA 		.word	-94075717
 915 0df8 AE12668D 		.word	-1922690386
 916 0dfc 476F3CBF 		.word	-1086558393
 917 0e00 63E49BD2 		.word	-761535389
 918 0e04 9E5D2F54 		.word	1412390302
 919 0e08 1B77C2AE 		.word	-1362987237
 920 0e0c 70634EF6 		.word	-162634896
 921 0e10 8D0D0E74 		.word	1947078029
 922 0e14 57135BE7 		.word	-413461673
 923 0e18 711672F8 		.word	-126740879
 924 0e1c 5D7D53AF 		.word	-1353482915
 925 0e20 08CB4040 		.word	1077988104
 926 0e24 CCE2B44E 		.word	1320477388
 927 0e28 6A46D234 		.word	886195818
 928 0e2c 84AF1501 		.word	18198404
 929 0e30 2804B0E1 		.word	-508558296
 930 0e34 1D3A9895 		.word	-1785185763
 931 0e38 B49FB806 		.word	112762804
 932 0e3c 48A06ECE 		.word	-831610808
 933 0e40 823B3F6F 		.word	1866414978
 934 0e44 82AB2035 		.word	891333506
 935 0e48 4B1D1A01 		.word	18488651
 936 0e4c F8277227 		.word	661792760
 937 0e50 B1601561 		.word	1628790961
 938 0e54 DC3F93E7 		.word	-409780260
 939 0e58 2B793ABB 		.word	-1153795797
 940 0e5c BD254534 		.word	876946877
 941 0e60 E13988A0 		.word	-1601685023
 942 0e64 4B79CE51 		.word	1372485963
 943 0e68 B7C9322F 		.word	791857591
 944 0e6c C9BA1FA0 		.word	-1608533303
 945 0e70 7EC81CE0 		.word	-534984578
 946 0e74 F6D1C7BC 		.word	-1127755274
 947 0e78 C31101CF 		.word	-822013501
 948 0e7c C7AAE8A1 		.word	-1578587449
 949 0e80 4987901A 		.word	445679433
 950 0e84 9ABD4FD4 		.word	-732971622
 951 0e88 CBDEDAD0 		.word	-790962485
 952 0e8c 38DA0AD5 		.word	-720709064
 953 0e90 2AC33903 		.word	54117162
 954 0e94 673691C6 		.word	-963561881
 955 0e98 7C31F98D 		.word	-1913048708
 956 0e9c 4F2BB1E0 		.word	-525259953
 957 0ea0 B7599EF7 		.word	-140617289
 958 0ea4 3ABBF543 		.word	1140177722
 959 0ea8 FF19D5F2 		.word	-220915201
 960 0eac 9C45D927 		.word	668550556
 961 0eb0 2C2297BF 		.word	-1080614356
 962 0eb4 2AFCE615 		.word	367459370
 963 0eb8 71FC910F 		.word	261225585
 964 0ebc 2515949B 		.word	-1684794075
 965 0ec0 6193E5FA 		.word	-85617823
 966 0ec4 EB9CB6CE 		.word	-826893077
 967 0ec8 5964A8C2 		.word	-1029151655
 968 0ecc D1A8BA12 		.word	314222801
 969 0ed0 5E07C1B6 		.word	-1228863650
 970 0ed4 0C6A05E3 		.word	-486184436
 971 0ed8 6550D210 		.word	282218597
 972 0edc 42A403CB 		.word	-888953790
 973 0ee0 0E6EECE0 		.word	-521376242
 974 0ee4 3BDB9816 		.word	379116347
 975 0ee8 BEA0984C 		.word	1285071038
 976 0eec 64E97832 		.word	846784868
 977 0ef0 32951F9F 		.word	-1625320142
 978 0ef4 DF92D3E0 		.word	-523005217
 979 0ef8 2B34A0D3 		.word	-744475605
 980 0efc 1EF27189 		.word	-1989021154
 981 0f00 41740A1B 		.word	453669953
 982 0f04 8C34A34B 		.word	1268987020
 983 0f08 2071BEC5 		.word	-977374944
 984 0f0c D83276C3 		.word	-1015663912
 985 0f10 8D9F35DF 		.word	-550133875
 986 0f14 2E2F999B 		.word	-1684459730
 987 0f18 476F0BE6 		.word	-435458233
 988 0f1c 1DF1E30F 		.word	266596637
 989 0f20 54DA4CE5 		.word	-447948204
 990 0f24 91D8DA1E 		.word	517658769
 991 0f28 CF7962CE 		.word	-832407089
 992 0f2c 6F7E3ECD 		.word	-851542417
 993 0f30 66B11816 		.word	370717030
 994 0f34 051D2CFD 		.word	-47440635
 995 0f38 C5D28F84 		.word	-2070949179
 996 0f3c 9922FBF6 		.word	-151313767
 997 0f40 57F323F5 		.word	-182193321
 998 0f44 237632A6 		.word	-1506642397
 999 0f48 3135A893 		.word	-1817692879
 1000 0f4c 02CDCC56 		.word	1456262402
 1001 0f50 6281F0AC 		.word	-1393524382
 1002 0f54 B5EB755A 		.word	1517677493
 1003 0f58 9736166E 		.word	1846949527
 1004 0f5c CC73D288 		.word	-1999473716
 1005 0f60 926296DE 		.word	-560569710
 1006 0f64 D049B981 		.word	-2118563376
 1007 0f68 1B90504C 		.word	1280348187
 1008 0f6c 1456C671 		.word	1908823572
 1009 0f70 BDC7C6E6 		.word	-423180355
 1010 0f74 0A147A32 		.word	846861322
 1011 0f78 06D0E145 		.word	1172426758
 1012 0f7c 9A7BF2C3 		.word	-1007518822
 1013 0f80 FD53AAC9 		.word	-911584259
 1014 0f84 000FA862 		.word	1655181056
 1015 0f88 E2BF25BB 		.word	-1155153950
 1016 0f8c F6D2BD35 		.word	901632758
 1017 0f90 05691271 		.word	1897031941
 1018 0f94 220204B2 		.word	-1308360158
 1019 0f98 7CCFCBB6 		.word	-1228157060
 1020 0f9c 2B9C76CD 		.word	-847864789
 1021 0fa0 C03E1153 		.word	1393639104
 1022 0fa4 D3E34016 		.word	373351379
 1023 0fa8 60BDAB38 		.word	950779232
 1024 0fac F0AD4725 		.word	625454576
 1025 0fb0 9C2038BA 		.word	-1170726756
 1026 0fb4 76CE46F7 		.word	-146354570
 1027 0fb8 C5A1AF77 		.word	2007998917
 1028 0fbc 60607520 		.word	544563296
 1029 0fc0 4EFECB85 		.word	-2050228658
 1030 0fc4 D88DE88A 		.word	-1964470824
 1031 0fc8 B0F9AA7A 		.word	2058025392
 1032 0fcc 7EAAF94C 		.word	1291430526
 1033 0fd0 5CC24819 		.word	424198748
 1034 0fd4 8C8AFB02 		.word	50039436
 1035 0fd8 E46AC301 		.word	29584100
 1036 0fdc F9E1EBD6 		.word	-689184263
 1037 0fe0 69F8D490 		.word	-1865090967
 1038 0fe4 A0DE5CA6 		.word	-1503863136
 1039 0fe8 2D25093F 		.word	1057563949
 1040 0fec 9FE608C2 		.word	-1039604065
 1041 0ff0 32614EB7 		.word	-1219600078
 1042 0ff4 5BE277CE 		.word	-831004069
 1043 0ff8 E3DF8F57 		.word	1469046755
 1044 0ffc E672C33A 		.word	985887462
 1045 1000 886A3F24 		.word	608135816
 1046 1004 D308A385 		.word	-2052912941
 1047 1008 2E8A1913 		.word	320440878
 1048 100c 44737003 		.word	57701188
 1049 1010 223809A4 		.word	-1542899678
 1050 1014 D0319F29 		.word	698298832
 1051 1018 98FA2E08 		.word	137296536
 1052 101c 896C4EEC 		.word	-330404727
 1053 1020 E6212845 		.word	1160258022
 1054 1024 7713D038 		.word	953160567
 1055 1028 CF6654BE 		.word	-1101764913
 1056 102c 6C0CE934 		.word	887688300
 1057 1030 B729ACC0 		.word	-1062458953
 1058 1034 DD507CC9 		.word	-914599715
 1059 1038 B5D5843F 		.word	1065670069
 1060 103c 170947B5 		.word	-1253635817
 1061 1040 D9D51692 		.word	-1843997223
 1062 1044 1BFB7989 		.word	-1988494565
 1063              		.text
 1064              		.align	2
 1065              		.global	_nettle_blowfish_encround
 1066              		.syntax unified
 1067              		.arm
 1068              		.fpu softvfp
 1070              	_nettle_blowfish_encround:
 1071              	.LFB0:
 1072              		.file 1 "blowfish.c"
   1:blowfish.c    **** /* blowfish.c
   2:blowfish.c    **** 
   3:blowfish.c    ****    The blowfish block cipher.
   4:blowfish.c    **** 
   5:blowfish.c    ****    Copyright (C) 2014 Niels Möller
   6:blowfish.c    ****    Copyright (C) 2010  Simon Josefsson
   7:blowfish.c    ****    Copyright (C) 1998, 2001, 2002, 2003 Free Software Foundation, Inc.
   8:blowfish.c    **** 
   9:blowfish.c    ****    This file is part of GNU Nettle.
  10:blowfish.c    **** 
  11:blowfish.c    ****    GNU Nettle is free software: you can redistribute it and/or
  12:blowfish.c    ****    modify it under the terms of either:
  13:blowfish.c    **** 
  14:blowfish.c    ****      * the GNU Lesser General Public License as published by the Free
  15:blowfish.c    ****        Software Foundation; either version 3 of the License, or (at your
  16:blowfish.c    ****        option) any later version.
  17:blowfish.c    **** 
  18:blowfish.c    ****    or
  19:blowfish.c    **** 
  20:blowfish.c    ****      * the GNU General Public License as published by the Free
  21:blowfish.c    ****        Software Foundation; either version 2 of the License, or (at your
  22:blowfish.c    ****        option) any later version.
  23:blowfish.c    **** 
  24:blowfish.c    ****    or both in parallel, as here.
  25:blowfish.c    **** 
  26:blowfish.c    ****    GNU Nettle is distributed in the hope that it will be useful,
  27:blowfish.c    ****    but WITHOUT ANY WARRANTY; without even the implied warranty of
  28:blowfish.c    ****    MERCHANTABILITY or FITNESS FOR A PARTICULAR PURPOSE.  See the GNU
  29:blowfish.c    ****    General Public License for more details.
  30:blowfish.c    **** 
  31:blowfish.c    ****    You should have received copies of the GNU General Public License and
  32:blowfish.c    ****    the GNU Lesser General Public License along with this program.  If
  33:blowfish.c    ****    not, see http://www.gnu.org/licenses/.
  34:blowfish.c    **** */
  35:blowfish.c    **** 
  36:blowfish.c    **** /* For a description of the algorithm, see:
  37:blowfish.c    ****  *   Bruce Schneier: Applied Cryptography. John Wiley & Sons, 1996.
  38:blowfish.c    ****  *   ISBN 0-471-11709-9. Pages 336 ff.
  39:blowfish.c    ****  */
  40:blowfish.c    **** 
  41:blowfish.c    **** /* This file is derived from cipher/blowfish.c in Libgcrypt v1.4.6.
  42:blowfish.c    ****    The adaption to Nettle was made by Simon Josefsson on 2010-11-23.
  43:blowfish.c    ****    Changes include removing the selftest, renaming u32/byte types to
  44:blowfish.c    ****    uint32_t/uint8_t, renaming BLOWFISH_ROUNDS to _BLOWFISH_ROUNDS
  45:blowfish.c    ****    (from Nettle's blowfish.h), dropping the libgcrypt wrapper
  46:blowfish.c    ****    functions, fixing #include's, remove support for non-16 rounds
  47:blowfish.c    ****    (there are no test vectors), adding FOR_BLOCK iterations, and
  48:blowfish.c    ****    running indent on the code. */
  49:blowfish.c    **** 
  50:blowfish.c    **** #if HAVE_CONFIG_H
  51:blowfish.c    **** #include "config.h"
  52:blowfish.c    **** #endif
  53:blowfish.c    **** 
  54:blowfish.c    **** #include <assert.h>
  55:blowfish.c    **** 
  56:blowfish.c    **** #include "blowfish.h"
  57:blowfish.c    **** #include "blowfish-internal.h"
  58:blowfish.c    **** 
  59:blowfish.c    **** #include "macros.h"
  60:blowfish.c    **** 
  61:blowfish.c    **** /* precomputed S boxes */
  62:blowfish.c    **** const struct blowfish_ctx
  63:blowfish.c    **** _nettle_blowfish_initial_ctx = {
  64:blowfish.c    ****   {
  65:blowfish.c    ****     { /* ks0 */
  66:blowfish.c    ****       0xD1310BA6, 0x98DFB5AC, 0x2FFD72DB, 0xD01ADFB7, 0xB8E1AFED, 0x6A267E96,
  67:blowfish.c    ****       0xBA7C9045, 0xF12C7F99, 0x24A19947, 0xB3916CF7, 0x0801F2E2, 0x858EFC16,
  68:blowfish.c    ****       0x636920D8, 0x71574E69, 0xA458FEA3, 0xF4933D7E, 0x0D95748F, 0x728EB658,
  69:blowfish.c    ****       0x718BCD58, 0x82154AEE, 0x7B54A41D, 0xC25A59B5, 0x9C30D539, 0x2AF26013,
  70:blowfish.c    ****       0xC5D1B023, 0x286085F0, 0xCA417918, 0xB8DB38EF, 0x8E79DCB0, 0x603A180E,
  71:blowfish.c    ****       0x6C9E0E8B, 0xB01E8A3E, 0xD71577C1, 0xBD314B27, 0x78AF2FDA, 0x55605C60,
  72:blowfish.c    ****       0xE65525F3, 0xAA55AB94, 0x57489862, 0x63E81440, 0x55CA396A, 0x2AAB10B6,
  73:blowfish.c    ****       0xB4CC5C34, 0x1141E8CE, 0xA15486AF, 0x7C72E993, 0xB3EE1411, 0x636FBC2A,
  74:blowfish.c    ****       0x2BA9C55D, 0x741831F6, 0xCE5C3E16, 0x9B87931E, 0xAFD6BA33, 0x6C24CF5C,
  75:blowfish.c    ****       0x7A325381, 0x28958677, 0x3B8F4898, 0x6B4BB9AF, 0xC4BFE81B, 0x66282193,
  76:blowfish.c    ****       0x61D809CC, 0xFB21A991, 0x487CAC60, 0x5DEC8032, 0xEF845D5D, 0xE98575B1,
  77:blowfish.c    ****       0xDC262302, 0xEB651B88, 0x23893E81, 0xD396ACC5, 0x0F6D6FF3, 0x83F44239,
  78:blowfish.c    ****       0x2E0B4482, 0xA4842004, 0x69C8F04A, 0x9E1F9B5E, 0x21C66842, 0xF6E96C9A,
  79:blowfish.c    ****       0x670C9C61, 0xABD388F0, 0x6A51A0D2, 0xD8542F68, 0x960FA728, 0xAB5133A3,
  80:blowfish.c    ****       0x6EEF0B6C, 0x137A3BE4, 0xBA3BF050, 0x7EFB2A98, 0xA1F1651D, 0x39AF0176,
  81:blowfish.c    ****       0x66CA593E, 0x82430E88, 0x8CEE8619, 0x456F9FB4, 0x7D84A5C3, 0x3B8B5EBE,
  82:blowfish.c    ****       0xE06F75D8, 0x85C12073, 0x401A449F, 0x56C16AA6, 0x4ED3AA62, 0x363F7706,
  83:blowfish.c    ****       0x1BFEDF72, 0x429B023D, 0x37D0D724, 0xD00A1248, 0xDB0FEAD3, 0x49F1C09B,
  84:blowfish.c    ****       0x075372C9, 0x80991B7B, 0x25D479D8, 0xF6E8DEF7, 0xE3FE501A, 0xB6794C3B,
  85:blowfish.c    ****       0x976CE0BD, 0x04C006BA, 0xC1A94FB6, 0x409F60C4, 0x5E5C9EC2, 0x196A2463,
  86:blowfish.c    ****       0x68FB6FAF, 0x3E6C53B5, 0x1339B2EB, 0x3B52EC6F, 0x6DFC511F, 0x9B30952C,
  87:blowfish.c    ****       0xCC814544, 0xAF5EBD09, 0xBEE3D004, 0xDE334AFD, 0x660F2807, 0x192E4BB3,
  88:blowfish.c    ****       0xC0CBA857, 0x45C8740F, 0xD20B5F39, 0xB9D3FBDB, 0x5579C0BD, 0x1A60320A,
  89:blowfish.c    ****       0xD6A100C6, 0x402C7279, 0x679F25FE, 0xFB1FA3CC, 0x8EA5E9F8, 0xDB3222F8,
  90:blowfish.c    ****       0x3C7516DF, 0xFD616B15, 0x2F501EC8, 0xAD0552AB, 0x323DB5FA, 0xFD238760,
  91:blowfish.c    ****       0x53317B48, 0x3E00DF82, 0x9E5C57BB, 0xCA6F8CA0, 0x1A87562E, 0xDF1769DB,
  92:blowfish.c    ****       0xD542A8F6, 0x287EFFC3, 0xAC6732C6, 0x8C4F5573, 0x695B27B0, 0xBBCA58C8,
  93:blowfish.c    ****       0xE1FFA35D, 0xB8F011A0, 0x10FA3D98, 0xFD2183B8, 0x4AFCB56C, 0x2DD1D35B,
  94:blowfish.c    ****       0x9A53E479, 0xB6F84565, 0xD28E49BC, 0x4BFB9790, 0xE1DDF2DA, 0xA4CB7E33,
  95:blowfish.c    ****       0x62FB1341, 0xCEE4C6E8, 0xEF20CADA, 0x36774C01, 0xD07E9EFE, 0x2BF11FB4,
  96:blowfish.c    ****       0x95DBDA4D, 0xAE909198, 0xEAAD8E71, 0x6B93D5A0, 0xD08ED1D0, 0xAFC725E0,
  97:blowfish.c    ****       0x8E3C5B2F, 0x8E7594B7, 0x8FF6E2FB, 0xF2122B64, 0x8888B812, 0x900DF01C,
  98:blowfish.c    ****       0x4FAD5EA0, 0x688FC31C, 0xD1CFF191, 0xB3A8C1AD, 0x2F2F2218, 0xBE0E1777,
  99:blowfish.c    ****       0xEA752DFE, 0x8B021FA1, 0xE5A0CC0F, 0xB56F74E8, 0x18ACF3D6, 0xCE89E299,
 100:blowfish.c    ****       0xB4A84FE0, 0xFD13E0B7, 0x7CC43B81, 0xD2ADA8D9, 0x165FA266, 0x80957705,
 101:blowfish.c    ****       0x93CC7314, 0x211A1477, 0xE6AD2065, 0x77B5FA86, 0xC75442F5, 0xFB9D35CF,
 102:blowfish.c    ****       0xEBCDAF0C, 0x7B3E89A0, 0xD6411BD3, 0xAE1E7E49, 0x00250E2D, 0x2071B35E,
 103:blowfish.c    ****       0x226800BB, 0x57B8E0AF, 0x2464369B, 0xF009B91E, 0x5563911D, 0x59DFA6AA,
 104:blowfish.c    ****       0x78C14389, 0xD95A537F, 0x207D5BA2, 0x02E5B9C5, 0x83260376, 0x6295CFA9,
 105:blowfish.c    ****       0x11C81968, 0x4E734A41, 0xB3472DCA, 0x7B14A94A, 0x1B510052, 0x9A532915,
 106:blowfish.c    ****       0xD60F573F, 0xBC9BC6E4, 0x2B60A476, 0x81E67400, 0x08BA6FB5, 0x571BE91F,
 107:blowfish.c    ****       0xF296EC6B, 0x2A0DD915, 0xB6636521, 0xE7B9F9B6, 0xFF34052E, 0xC5855664,
 108:blowfish.c    ****       0x53B02D5D, 0xA99F8FA1, 0x08BA4799, 0x6E85076A
 109:blowfish.c    ****     },
 110:blowfish.c    ****     { /* ks1 */
 111:blowfish.c    ****       0x4B7A70E9, 0xB5B32944, 0xDB75092E, 0xC4192623, 0xAD6EA6B0, 0x49A7DF7D,
 112:blowfish.c    ****       0x9CEE60B8, 0x8FEDB266, 0xECAA8C71, 0x699A17FF, 0x5664526C, 0xC2B19EE1,
 113:blowfish.c    ****       0x193602A5, 0x75094C29, 0xA0591340, 0xE4183A3E, 0x3F54989A, 0x5B429D65,
 114:blowfish.c    ****       0x6B8FE4D6, 0x99F73FD6, 0xA1D29C07, 0xEFE830F5, 0x4D2D38E6, 0xF0255DC1,
 115:blowfish.c    ****       0x4CDD2086, 0x8470EB26, 0x6382E9C6, 0x021ECC5E, 0x09686B3F, 0x3EBAEFC9,
 116:blowfish.c    ****       0x3C971814, 0x6B6A70A1, 0x687F3584, 0x52A0E286, 0xB79C5305, 0xAA500737,
 117:blowfish.c    ****       0x3E07841C, 0x7FDEAE5C, 0x8E7D44EC, 0x5716F2B8, 0xB03ADA37, 0xF0500C0D,
 118:blowfish.c    ****       0xF01C1F04, 0x0200B3FF, 0xAE0CF51A, 0x3CB574B2, 0x25837A58, 0xDC0921BD,
 119:blowfish.c    ****       0xD19113F9, 0x7CA92FF6, 0x94324773, 0x22F54701, 0x3AE5E581, 0x37C2DADC,
 120:blowfish.c    ****       0xC8B57634, 0x9AF3DDA7, 0xA9446146, 0x0FD0030E, 0xECC8C73E, 0xA4751E41,
 121:blowfish.c    ****       0xE238CD99, 0x3BEA0E2F, 0x3280BBA1, 0x183EB331, 0x4E548B38, 0x4F6DB908,
 122:blowfish.c    ****       0x6F420D03, 0xF60A04BF, 0x2CB81290, 0x24977C79, 0x5679B072, 0xBCAF89AF,
 123:blowfish.c    ****       0xDE9A771F, 0xD9930810, 0xB38BAE12, 0xDCCF3F2E, 0x5512721F, 0x2E6B7124,
 124:blowfish.c    ****       0x501ADDE6, 0x9F84CD87, 0x7A584718, 0x7408DA17, 0xBC9F9ABC, 0xE94B7D8C,
 125:blowfish.c    ****       0xEC7AEC3A, 0xDB851DFA, 0x63094366, 0xC464C3D2, 0xEF1C1847, 0x3215D908,
 126:blowfish.c    ****       0xDD433B37, 0x24C2BA16, 0x12A14D43, 0x2A65C451, 0x50940002, 0x133AE4DD,
 127:blowfish.c    ****       0x71DFF89E, 0x10314E55, 0x81AC77D6, 0x5F11199B, 0x043556F1, 0xD7A3C76B,
 128:blowfish.c    ****       0x3C11183B, 0x5924A509, 0xF28FE6ED, 0x97F1FBFA, 0x9EBABF2C, 0x1E153C6E,
 129:blowfish.c    ****       0x86E34570, 0xEAE96FB1, 0x860E5E0A, 0x5A3E2AB3, 0x771FE71C, 0x4E3D06FA,
 130:blowfish.c    ****       0x2965DCB9, 0x99E71D0F, 0x803E89D6, 0x5266C825, 0x2E4CC978, 0x9C10B36A,
 131:blowfish.c    ****       0xC6150EBA, 0x94E2EA78, 0xA5FC3C53, 0x1E0A2DF4, 0xF2F74EA7, 0x361D2B3D,
 132:blowfish.c    ****       0x1939260F, 0x19C27960, 0x5223A708, 0xF71312B6, 0xEBADFE6E, 0xEAC31F66,
 133:blowfish.c    ****       0xE3BC4595, 0xA67BC883, 0xB17F37D1, 0x018CFF28, 0xC332DDEF, 0xBE6C5AA5,
 134:blowfish.c    ****       0x65582185, 0x68AB9802, 0xEECEA50F, 0xDB2F953B, 0x2AEF7DAD, 0x5B6E2F84,
 135:blowfish.c    ****       0x1521B628, 0x29076170, 0xECDD4775, 0x619F1510, 0x13CCA830, 0xEB61BD96,
 136:blowfish.c    ****       0x0334FE1E, 0xAA0363CF, 0xB5735C90, 0x4C70A239, 0xD59E9E0B, 0xCBAADE14,
 137:blowfish.c    ****       0xEECC86BC, 0x60622CA7, 0x9CAB5CAB, 0xB2F3846E, 0x648B1EAF, 0x19BDF0CA,
 138:blowfish.c    ****       0xA02369B9, 0x655ABB50, 0x40685A32, 0x3C2AB4B3, 0x319EE9D5, 0xC021B8F7,
 139:blowfish.c    ****       0x9B540B19, 0x875FA099, 0x95F7997E, 0x623D7DA8, 0xF837889A, 0x97E32D77,
 140:blowfish.c    ****       0x11ED935F, 0x16681281, 0x0E358829, 0xC7E61FD6, 0x96DEDFA1, 0x7858BA99,
 141:blowfish.c    ****       0x57F584A5, 0x1B227263, 0x9B83C3FF, 0x1AC24696, 0xCDB30AEB, 0x532E3054,
 142:blowfish.c    ****       0x8FD948E4, 0x6DBC3128, 0x58EBF2EF, 0x34C6FFEA, 0xFE28ED61, 0xEE7C3C73,
 143:blowfish.c    ****       0x5D4A14D9, 0xE864B7E3, 0x42105D14, 0x203E13E0, 0x45EEE2B6, 0xA3AAABEA,
 144:blowfish.c    ****       0xDB6C4F15, 0xFACB4FD0, 0xC742F442, 0xEF6ABBB5, 0x654F3B1D, 0x41CD2105,
 145:blowfish.c    ****       0xD81E799E, 0x86854DC7, 0xE44B476A, 0x3D816250, 0xCF62A1F2, 0x5B8D2646,
 146:blowfish.c    ****       0xFC8883A0, 0xC1C7B6A3, 0x7F1524C3, 0x69CB7492, 0x47848A0B, 0x5692B285,
 147:blowfish.c    ****       0x095BBF00, 0xAD19489D, 0x1462B174, 0x23820E00, 0x58428D2A, 0x0C55F5EA,
 148:blowfish.c    ****       0x1DADF43E, 0x233F7061, 0x3372F092, 0x8D937E41, 0xD65FECF1, 0x6C223BDB,
 149:blowfish.c    ****       0x7CDE3759, 0xCBEE7460, 0x4085F2A7, 0xCE77326E, 0xA6078084, 0x19F8509E,
 150:blowfish.c    ****       0xE8EFD855, 0x61D99735, 0xA969A7AA, 0xC50C06C2, 0x5A04ABFC, 0x800BCADC,
 151:blowfish.c    ****       0x9E447A2E, 0xC3453484, 0xFDD56705, 0x0E1E9EC9, 0xDB73DBD3, 0x105588CD,
 152:blowfish.c    ****       0x675FDA79, 0xE3674340, 0xC5C43465, 0x713E38D8, 0x3D28F89E, 0xF16DFF20,
 153:blowfish.c    ****       0x153E21E7, 0x8FB03D4A, 0xE6E39F2B, 0xDB83ADF7
 154:blowfish.c    ****     },
 155:blowfish.c    ****     { /* ks2 */
 156:blowfish.c    ****       0xE93D5A68, 0x948140F7, 0xF64C261C, 0x94692934, 0x411520F7, 0x7602D4F7,
 157:blowfish.c    ****       0xBCF46B2E, 0xD4A20068, 0xD4082471, 0x3320F46A, 0x43B7D4B7, 0x500061AF,
 158:blowfish.c    ****       0x1E39F62E, 0x97244546, 0x14214F74, 0xBF8B8840, 0x4D95FC1D, 0x96B591AF,
 159:blowfish.c    ****       0x70F4DDD3, 0x66A02F45, 0xBFBC09EC, 0x03BD9785, 0x7FAC6DD0, 0x31CB8504,
 160:blowfish.c    ****       0x96EB27B3, 0x55FD3941, 0xDA2547E6, 0xABCA0A9A, 0x28507825, 0x530429F4,
 161:blowfish.c    ****       0x0A2C86DA, 0xE9B66DFB, 0x68DC1462, 0xD7486900, 0x680EC0A4, 0x27A18DEE,
 162:blowfish.c    ****       0x4F3FFEA2, 0xE887AD8C, 0xB58CE006, 0x7AF4D6B6, 0xAACE1E7C, 0xD3375FEC,
 163:blowfish.c    ****       0xCE78A399, 0x406B2A42, 0x20FE9E35, 0xD9F385B9, 0xEE39D7AB, 0x3B124E8B,
 164:blowfish.c    ****       0x1DC9FAF7, 0x4B6D1856, 0x26A36631, 0xEAE397B2, 0x3A6EFA74, 0xDD5B4332,
 165:blowfish.c    ****       0x6841E7F7, 0xCA7820FB, 0xFB0AF54E, 0xD8FEB397, 0x454056AC, 0xBA489527,
 166:blowfish.c    ****       0x55533A3A, 0x20838D87, 0xFE6BA9B7, 0xD096954B, 0x55A867BC, 0xA1159A58,
 167:blowfish.c    ****       0xCCA92963, 0x99E1DB33, 0xA62A4A56, 0x3F3125F9, 0x5EF47E1C, 0x9029317C,
 168:blowfish.c    ****       0xFDF8E802, 0x04272F70, 0x80BB155C, 0x05282CE3, 0x95C11548, 0xE4C66D22,
 169:blowfish.c    ****       0x48C1133F, 0xC70F86DC, 0x07F9C9EE, 0x41041F0F, 0x404779A4, 0x5D886E17,
 170:blowfish.c    ****       0x325F51EB, 0xD59BC0D1, 0xF2BCC18F, 0x41113564, 0x257B7834, 0x602A9C60,
 171:blowfish.c    ****       0xDFF8E8A3, 0x1F636C1B, 0x0E12B4C2, 0x02E1329E, 0xAF664FD1, 0xCAD18115,
 172:blowfish.c    ****       0x6B2395E0, 0x333E92E1, 0x3B240B62, 0xEEBEB922, 0x85B2A20E, 0xE6BA0D99,
 173:blowfish.c    ****       0xDE720C8C, 0x2DA2F728, 0xD0127845, 0x95B794FD, 0x647D0862, 0xE7CCF5F0,
 174:blowfish.c    ****       0x5449A36F, 0x877D48FA, 0xC39DFD27, 0xF33E8D1E, 0x0A476341, 0x992EFF74,
 175:blowfish.c    ****       0x3A6F6EAB, 0xF4F8FD37, 0xA812DC60, 0xA1EBDDF8, 0x991BE14C, 0xDB6E6B0D,
 176:blowfish.c    ****       0xC67B5510, 0x6D672C37, 0x2765D43B, 0xDCD0E804, 0xF1290DC7, 0xCC00FFA3,
 177:blowfish.c    ****       0xB5390F92, 0x690FED0B, 0x667B9FFB, 0xCEDB7D9C, 0xA091CF0B, 0xD9155EA3,
 178:blowfish.c    ****       0xBB132F88, 0x515BAD24, 0x7B9479BF, 0x763BD6EB, 0x37392EB3, 0xCC115979,
 179:blowfish.c    ****       0x8026E297, 0xF42E312D, 0x6842ADA7, 0xC66A2B3B, 0x12754CCC, 0x782EF11C,
 180:blowfish.c    ****       0x6A124237, 0xB79251E7, 0x06A1BBE6, 0x4BFB6350, 0x1A6B1018, 0x11CAEDFA,
 181:blowfish.c    ****       0x3D25BDD8, 0xE2E1C3C9, 0x44421659, 0x0A121386, 0xD90CEC6E, 0xD5ABEA2A,
 182:blowfish.c    ****       0x64AF674E, 0xDA86A85F, 0xBEBFE988, 0x64E4C3FE, 0x9DBC8057, 0xF0F7C086,
 183:blowfish.c    ****       0x60787BF8, 0x6003604D, 0xD1FD8346, 0xF6381FB0, 0x7745AE04, 0xD736FCCC,
 184:blowfish.c    ****       0x83426B33, 0xF01EAB71, 0xB0804187, 0x3C005E5F, 0x77A057BE, 0xBDE8AE24,
 185:blowfish.c    ****       0x55464299, 0xBF582E61, 0x4E58F48F, 0xF2DDFDA2, 0xF474EF38, 0x8789BDC2,
 186:blowfish.c    ****       0x5366F9C3, 0xC8B38E74, 0xB475F255, 0x46FCD9B9, 0x7AEB2661, 0x8B1DDF84,
 187:blowfish.c    ****       0x846A0E79, 0x915F95E2, 0x466E598E, 0x20B45770, 0x8CD55591, 0xC902DE4C,
 188:blowfish.c    ****       0xB90BACE1, 0xBB8205D0, 0x11A86248, 0x7574A99E, 0xB77F19B6, 0xE0A9DC09,
 189:blowfish.c    ****       0x662D09A1, 0xC4324633, 0xE85A1F02, 0x09F0BE8C, 0x4A99A025, 0x1D6EFE10,
 190:blowfish.c    ****       0x1AB93D1D, 0x0BA5A4DF, 0xA186F20F, 0x2868F169, 0xDCB7DA83, 0x573906FE,
 191:blowfish.c    ****       0xA1E2CE9B, 0x4FCD7F52, 0x50115E01, 0xA70683FA, 0xA002B5C4, 0x0DE6D027,
 192:blowfish.c    ****       0x9AF88C27, 0x773F8641, 0xC3604C06, 0x61A806B5, 0xF0177A28, 0xC0F586E0,
 193:blowfish.c    ****       0x006058AA, 0x30DC7D62, 0x11E69ED7, 0x2338EA63, 0x53C2DD94, 0xC2C21634,
 194:blowfish.c    ****       0xBBCBEE56, 0x90BCB6DE, 0xEBFC7DA1, 0xCE591D76, 0x6F05E409, 0x4B7C0188,
 195:blowfish.c    ****       0x39720A3D, 0x7C927C24, 0x86E3725F, 0x724D9DB9, 0x1AC15BB4, 0xD39EB8FC,
 196:blowfish.c    ****       0xED545578, 0x08FCA5B5, 0xD83D7CD3, 0x4DAD0FC4, 0x1E50EF5E, 0xB161E6F8,
 197:blowfish.c    ****       0xA28514D9, 0x6C51133C, 0x6FD5C7E7, 0x56E14EC4, 0x362ABFCE, 0xDDC6C837,
 198:blowfish.c    ****       0xD79A3234, 0x92638212, 0x670EFA8E, 0x406000E0
 199:blowfish.c    ****     },
 200:blowfish.c    ****     { /* ks3 */
 201:blowfish.c    ****       0x3A39CE37, 0xD3FAF5CF, 0xABC27737, 0x5AC52D1B, 0x5CB0679E, 0x4FA33742,
 202:blowfish.c    ****       0xD3822740, 0x99BC9BBE, 0xD5118E9D, 0xBF0F7315, 0xD62D1C7E, 0xC700C47B,
 203:blowfish.c    ****       0xB78C1B6B, 0x21A19045, 0xB26EB1BE, 0x6A366EB4, 0x5748AB2F, 0xBC946E79,
 204:blowfish.c    ****       0xC6A376D2, 0x6549C2C8, 0x530FF8EE, 0x468DDE7D, 0xD5730A1D, 0x4CD04DC6,
 205:blowfish.c    ****       0x2939BBDB, 0xA9BA4650, 0xAC9526E8, 0xBE5EE304, 0xA1FAD5F0, 0x6A2D519A,
 206:blowfish.c    ****       0x63EF8CE2, 0x9A86EE22, 0xC089C2B8, 0x43242EF6, 0xA51E03AA, 0x9CF2D0A4,
 207:blowfish.c    ****       0x83C061BA, 0x9BE96A4D, 0x8FE51550, 0xBA645BD6, 0x2826A2F9, 0xA73A3AE1,
 208:blowfish.c    ****       0x4BA99586, 0xEF5562E9, 0xC72FEFD3, 0xF752F7DA, 0x3F046F69, 0x77FA0A59,
 209:blowfish.c    ****       0x80E4A915, 0x87B08601, 0x9B09E6AD, 0x3B3EE593, 0xE990FD5A, 0x9E34D797,
 210:blowfish.c    ****       0x2CF0B7D9, 0x022B8B51, 0x96D5AC3A, 0x017DA67D, 0xD1CF3ED6, 0x7C7D2D28,
 211:blowfish.c    ****       0x1F9F25CF, 0xADF2B89B, 0x5AD6B472, 0x5A88F54C, 0xE029AC71, 0xE019A5E6,
 212:blowfish.c    ****       0x47B0ACFD, 0xED93FA9B, 0xE8D3C48D, 0x283B57CC, 0xF8D56629, 0x79132E28,
 213:blowfish.c    ****       0x785F0191, 0xED756055, 0xF7960E44, 0xE3D35E8C, 0x15056DD4, 0x88F46DBA,
 214:blowfish.c    ****       0x03A16125, 0x0564F0BD, 0xC3EB9E15, 0x3C9057A2, 0x97271AEC, 0xA93A072A,
 215:blowfish.c    ****       0x1B3F6D9B, 0x1E6321F5, 0xF59C66FB, 0x26DCF319, 0x7533D928, 0xB155FDF5,
 216:blowfish.c    ****       0x03563482, 0x8ABA3CBB, 0x28517711, 0xC20AD9F8, 0xABCC5167, 0xCCAD925F,
 217:blowfish.c    ****       0x4DE81751, 0x3830DC8E, 0x379D5862, 0x9320F991, 0xEA7A90C2, 0xFB3E7BCE,
 218:blowfish.c    ****       0x5121CE64, 0x774FBE32, 0xA8B6E37E, 0xC3293D46, 0x48DE5369, 0x6413E680,
 219:blowfish.c    ****       0xA2AE0810, 0xDD6DB224, 0x69852DFD, 0x09072166, 0xB39A460A, 0x6445C0DD,
 220:blowfish.c    ****       0x586CDECF, 0x1C20C8AE, 0x5BBEF7DD, 0x1B588D40, 0xCCD2017F, 0x6BB4E3BB,
 221:blowfish.c    ****       0xDDA26A7E, 0x3A59FF45, 0x3E350A44, 0xBCB4CDD5, 0x72EACEA8, 0xFA6484BB,
 222:blowfish.c    ****       0x8D6612AE, 0xBF3C6F47, 0xD29BE463, 0x542F5D9E, 0xAEC2771B, 0xF64E6370,
 223:blowfish.c    ****       0x740E0D8D, 0xE75B1357, 0xF8721671, 0xAF537D5D, 0x4040CB08, 0x4EB4E2CC,
 224:blowfish.c    ****       0x34D2466A, 0x0115AF84, 0xE1B00428, 0x95983A1D, 0x06B89FB4, 0xCE6EA048,
 225:blowfish.c    ****       0x6F3F3B82, 0x3520AB82, 0x011A1D4B, 0x277227F8, 0x611560B1, 0xE7933FDC,
 226:blowfish.c    ****       0xBB3A792B, 0x344525BD, 0xA08839E1, 0x51CE794B, 0x2F32C9B7, 0xA01FBAC9,
 227:blowfish.c    ****       0xE01CC87E, 0xBCC7D1F6, 0xCF0111C3, 0xA1E8AAC7, 0x1A908749, 0xD44FBD9A,
 228:blowfish.c    ****       0xD0DADECB, 0xD50ADA38, 0x0339C32A, 0xC6913667, 0x8DF9317C, 0xE0B12B4F,
 229:blowfish.c    ****       0xF79E59B7, 0x43F5BB3A, 0xF2D519FF, 0x27D9459C, 0xBF97222C, 0x15E6FC2A,
 230:blowfish.c    ****       0x0F91FC71, 0x9B941525, 0xFAE59361, 0xCEB69CEB, 0xC2A86459, 0x12BAA8D1,
 231:blowfish.c    ****       0xB6C1075E, 0xE3056A0C, 0x10D25065, 0xCB03A442, 0xE0EC6E0E, 0x1698DB3B,
 232:blowfish.c    ****       0x4C98A0BE, 0x3278E964, 0x9F1F9532, 0xE0D392DF, 0xD3A0342B, 0x8971F21E,
 233:blowfish.c    ****       0x1B0A7441, 0x4BA3348C, 0xC5BE7120, 0xC37632D8, 0xDF359F8D, 0x9B992F2E,
 234:blowfish.c    ****       0xE60B6F47, 0x0FE3F11D, 0xE54CDA54, 0x1EDAD891, 0xCE6279CF, 0xCD3E7E6F,
 235:blowfish.c    ****       0x1618B166, 0xFD2C1D05, 0x848FD2C5, 0xF6FB2299, 0xF523F357, 0xA6327623,
 236:blowfish.c    ****       0x93A83531, 0x56CCCD02, 0xACF08162, 0x5A75EBB5, 0x6E163697, 0x88D273CC,
 237:blowfish.c    ****       0xDE966292, 0x81B949D0, 0x4C50901B, 0x71C65614, 0xE6C6C7BD, 0x327A140A,
 238:blowfish.c    ****       0x45E1D006, 0xC3F27B9A, 0xC9AA53FD, 0x62A80F00, 0xBB25BFE2, 0x35BDD2F6,
 239:blowfish.c    ****       0x71126905, 0xB2040222, 0xB6CBCF7C, 0xCD769C2B, 0x53113EC0, 0x1640E3D3,
 240:blowfish.c    ****       0x38ABBD60, 0x2547ADF0, 0xBA38209C, 0xF746CE76, 0x77AFA1C5, 0x20756060,
 241:blowfish.c    ****       0x85CBFE4E, 0x8AE88DD8, 0x7AAAF9B0, 0x4CF9AA7E, 0x1948C25C, 0x02FB8A8C,
 242:blowfish.c    ****       0x01C36AE4, 0xD6EBE1F9, 0x90D4F869, 0xA65CDEA0, 0x3F09252D, 0xC208E69F,
 243:blowfish.c    ****       0xB74E6132, 0xCE77E25B, 0x578FDFE3, 0x3AC372E6
 244:blowfish.c    ****     }
 245:blowfish.c    ****   },
 246:blowfish.c    ****   { /* ps */
 247:blowfish.c    ****     0x243F6A88, 0x85A308D3, 0x13198A2E, 0x03707344, 0xA4093822, 0x299F31D0,
 248:blowfish.c    ****     0x082EFA98, 0xEC4E6C89, 0x452821E6, 0x38D01377, 0xBE5466CF, 0x34E90C6C,
 249:blowfish.c    ****     0xC0AC29B7, 0xC97C50DD, 0x3F84D5B5, 0xB5470917, 0x9216D5D9, 0x8979FB1B
 250:blowfish.c    ****   }
 251:blowfish.c    **** };
 252:blowfish.c    **** 
 253:blowfish.c    **** /* It's unfortunate to have to pick the bytes apart in the round
 254:blowfish.c    ****  * function. Werner's gnupg/libgcrypt code took the address of x, and
 255:blowfish.c    ****  * then read the individual bytes depending on the endianness. But
 256:blowfish.c    ****  * since xr and xl ought to live in registers, copying via memory is a
 257:blowfish.c    ****  * bad idea. */
 258:blowfish.c    **** 
 259:blowfish.c    **** #define F(c, x) \
 260:blowfish.c    ****   ((( (c->s[0][(x>>24) &0xff] + c->s[1][(x>>16) & 0xff]) \
 261:blowfish.c    ****       ^ c->s[2][(x>>8) & 0xff]) + c->s[3][x & 0xff]) & 0xffffffff)
 262:blowfish.c    **** 
 263:blowfish.c    **** #define R(c, l,r,i)  do { l ^= c->p[i]; r ^= F(c,l); } while(0)
 264:blowfish.c    **** 
 265:blowfish.c    **** void
 266:blowfish.c    **** _nettle_blowfish_encround (const struct blowfish_ctx *ctx, uint32_t * ret_xl,
 267:blowfish.c    **** 	    uint32_t * ret_xr)
 268:blowfish.c    **** {
 1073              		.loc 1 268 1
 1074              		.cfi_startproc
 1075              		@ args = 0, pretend = 0, frame = 24
 1076              		@ frame_needed = 1, uses_anonymous_args = 0
 1077              		@ link register save eliminated.
 1078 0000 04B02DE5 		str	fp, [sp, #-4]!
 1079              		.cfi_def_cfa_offset 4
 1080              		.cfi_offset 11, -4
 1081 0004 00B08DE2 		add	fp, sp, #0
 1082              		.cfi_def_cfa_register 11
 1083 0008 1CD04DE2 		sub	sp, sp, #28
 1084 000c 10000BE5 		str	r0, [fp, #-16]
 1085 0010 14100BE5 		str	r1, [fp, #-20]
 1086 0014 18200BE5 		str	r2, [fp, #-24]
 269:blowfish.c    ****   uint32_t xl, xr;
 270:blowfish.c    **** 
 271:blowfish.c    ****   xl = *ret_xl;
 1087              		.loc 1 271 6
 1088 0018 14301BE5 		ldr	r3, [fp, #-20]
 1089 001c 003093E5 		ldr	r3, [r3]
 1090 0020 0C300BE5 		str	r3, [fp, #-12]
 272:blowfish.c    ****   xr = *ret_xr;
 1091              		.loc 1 272 6
 1092 0024 18301BE5 		ldr	r3, [fp, #-24]
 1093 0028 003093E5 		ldr	r3, [r3]
 1094 002c 08300BE5 		str	r3, [fp, #-8]
 273:blowfish.c    **** 
 274:blowfish.c    ****   R (ctx, xl, xr, 0);
 1095              		.loc 1 274 3
 1096 0030 10301BE5 		ldr	r3, [fp, #-16]
 1097 0034 013A83E2 		add	r3, r3, #4096
 1098 0038 003093E5 		ldr	r3, [r3]
 1099 003c 0C201BE5 		ldr	r2, [fp, #-12]
 1100 0040 023023E0 		eor	r3, r3, r2
 1101 0044 0C300BE5 		str	r3, [fp, #-12]
 1102 0048 0C301BE5 		ldr	r3, [fp, #-12]
 1103 004c 232CA0E1 		lsr	r2, r3, #24
 1104 0050 10301BE5 		ldr	r3, [fp, #-16]
 1105 0054 022193E7 		ldr	r2, [r3, r2, lsl #2]
 1106 0058 0C301BE5 		ldr	r3, [fp, #-12]
 1107 005c 2338A0E1 		lsr	r3, r3, #16
 1108 0060 FF1003E2 		and	r1, r3, #255
 1109 0064 10301BE5 		ldr	r3, [fp, #-16]
 1110 0068 011C81E2 		add	r1, r1, #256
 1111 006c 013193E7 		ldr	r3, [r3, r1, lsl #2]
 1112 0070 032082E0 		add	r2, r2, r3
 1113 0074 0C301BE5 		ldr	r3, [fp, #-12]
 1114 0078 2334A0E1 		lsr	r3, r3, #8
 1115 007c FF1003E2 		and	r1, r3, #255
 1116 0080 10301BE5 		ldr	r3, [fp, #-16]
 1117 0084 021C81E2 		add	r1, r1, #512
 1118 0088 013193E7 		ldr	r3, [r3, r1, lsl #2]
 1119 008c 032022E0 		eor	r2, r2, r3
 1120 0090 0C301BE5 		ldr	r3, [fp, #-12]
 1121 0094 FF1003E2 		and	r1, r3, #255
 1122 0098 10301BE5 		ldr	r3, [fp, #-16]
 1123 009c 031C81E2 		add	r1, r1, #768
 1124 00a0 013193E7 		ldr	r3, [r3, r1, lsl #2]
 1125 00a4 033082E0 		add	r3, r2, r3
 1126 00a8 08201BE5 		ldr	r2, [fp, #-8]
 1127 00ac 023023E0 		eor	r3, r3, r2
 1128 00b0 08300BE5 		str	r3, [fp, #-8]
 275:blowfish.c    ****   R (ctx, xr, xl, 1);
 1129              		.loc 1 275 3
 1130 00b4 10301BE5 		ldr	r3, [fp, #-16]
 1131 00b8 013A83E2 		add	r3, r3, #4096
 1132 00bc 043093E5 		ldr	r3, [r3, #4]
 1133 00c0 08201BE5 		ldr	r2, [fp, #-8]
 1134 00c4 023023E0 		eor	r3, r3, r2
 1135 00c8 08300BE5 		str	r3, [fp, #-8]
 1136 00cc 08301BE5 		ldr	r3, [fp, #-8]
 1137 00d0 232CA0E1 		lsr	r2, r3, #24
 1138 00d4 10301BE5 		ldr	r3, [fp, #-16]
 1139 00d8 022193E7 		ldr	r2, [r3, r2, lsl #2]
 1140 00dc 08301BE5 		ldr	r3, [fp, #-8]
 1141 00e0 2338A0E1 		lsr	r3, r3, #16
 1142 00e4 FF1003E2 		and	r1, r3, #255
 1143 00e8 10301BE5 		ldr	r3, [fp, #-16]
 1144 00ec 011C81E2 		add	r1, r1, #256
 1145 00f0 013193E7 		ldr	r3, [r3, r1, lsl #2]
 1146 00f4 032082E0 		add	r2, r2, r3
 1147 00f8 08301BE5 		ldr	r3, [fp, #-8]
 1148 00fc 2334A0E1 		lsr	r3, r3, #8
 1149 0100 FF1003E2 		and	r1, r3, #255
 1150 0104 10301BE5 		ldr	r3, [fp, #-16]
 1151 0108 021C81E2 		add	r1, r1, #512
 1152 010c 013193E7 		ldr	r3, [r3, r1, lsl #2]
 1153 0110 032022E0 		eor	r2, r2, r3
 1154 0114 08301BE5 		ldr	r3, [fp, #-8]
 1155 0118 FF1003E2 		and	r1, r3, #255
 1156 011c 10301BE5 		ldr	r3, [fp, #-16]
 1157 0120 031C81E2 		add	r1, r1, #768
 1158 0124 013193E7 		ldr	r3, [r3, r1, lsl #2]
 1159 0128 033082E0 		add	r3, r2, r3
 1160 012c 0C201BE5 		ldr	r2, [fp, #-12]
 1161 0130 023023E0 		eor	r3, r3, r2
 1162 0134 0C300BE5 		str	r3, [fp, #-12]
 276:blowfish.c    ****   R (ctx, xl, xr, 2);
 1163              		.loc 1 276 3
 1164 0138 10301BE5 		ldr	r3, [fp, #-16]
 1165 013c 013A83E2 		add	r3, r3, #4096
 1166 0140 083093E5 		ldr	r3, [r3, #8]
 1167 0144 0C201BE5 		ldr	r2, [fp, #-12]
 1168 0148 023023E0 		eor	r3, r3, r2
 1169 014c 0C300BE5 		str	r3, [fp, #-12]
 1170 0150 0C301BE5 		ldr	r3, [fp, #-12]
 1171 0154 232CA0E1 		lsr	r2, r3, #24
 1172 0158 10301BE5 		ldr	r3, [fp, #-16]
 1173 015c 022193E7 		ldr	r2, [r3, r2, lsl #2]
 1174 0160 0C301BE5 		ldr	r3, [fp, #-12]
 1175 0164 2338A0E1 		lsr	r3, r3, #16
 1176 0168 FF1003E2 		and	r1, r3, #255
 1177 016c 10301BE5 		ldr	r3, [fp, #-16]
 1178 0170 011C81E2 		add	r1, r1, #256
 1179 0174 013193E7 		ldr	r3, [r3, r1, lsl #2]
 1180 0178 032082E0 		add	r2, r2, r3
 1181 017c 0C301BE5 		ldr	r3, [fp, #-12]
 1182 0180 2334A0E1 		lsr	r3, r3, #8
 1183 0184 FF1003E2 		and	r1, r3, #255
 1184 0188 10301BE5 		ldr	r3, [fp, #-16]
 1185 018c 021C81E2 		add	r1, r1, #512
 1186 0190 013193E7 		ldr	r3, [r3, r1, lsl #2]
 1187 0194 032022E0 		eor	r2, r2, r3
 1188 0198 0C301BE5 		ldr	r3, [fp, #-12]
 1189 019c FF1003E2 		and	r1, r3, #255
 1190 01a0 10301BE5 		ldr	r3, [fp, #-16]
 1191 01a4 031C81E2 		add	r1, r1, #768
 1192 01a8 013193E7 		ldr	r3, [r3, r1, lsl #2]
 1193 01ac 033082E0 		add	r3, r2, r3
 1194 01b0 08201BE5 		ldr	r2, [fp, #-8]
 1195 01b4 023023E0 		eor	r3, r3, r2
 1196 01b8 08300BE5 		str	r3, [fp, #-8]
 277:blowfish.c    ****   R (ctx, xr, xl, 3);
 1197              		.loc 1 277 3
 1198 01bc 10301BE5 		ldr	r3, [fp, #-16]
 1199 01c0 013A83E2 		add	r3, r3, #4096
 1200 01c4 0C3093E5 		ldr	r3, [r3, #12]
 1201 01c8 08201BE5 		ldr	r2, [fp, #-8]
 1202 01cc 023023E0 		eor	r3, r3, r2
 1203 01d0 08300BE5 		str	r3, [fp, #-8]
 1204 01d4 08301BE5 		ldr	r3, [fp, #-8]
 1205 01d8 232CA0E1 		lsr	r2, r3, #24
 1206 01dc 10301BE5 		ldr	r3, [fp, #-16]
 1207 01e0 022193E7 		ldr	r2, [r3, r2, lsl #2]
 1208 01e4 08301BE5 		ldr	r3, [fp, #-8]
 1209 01e8 2338A0E1 		lsr	r3, r3, #16
 1210 01ec FF1003E2 		and	r1, r3, #255
 1211 01f0 10301BE5 		ldr	r3, [fp, #-16]
 1212 01f4 011C81E2 		add	r1, r1, #256
 1213 01f8 013193E7 		ldr	r3, [r3, r1, lsl #2]
 1214 01fc 032082E0 		add	r2, r2, r3
 1215 0200 08301BE5 		ldr	r3, [fp, #-8]
 1216 0204 2334A0E1 		lsr	r3, r3, #8
 1217 0208 FF1003E2 		and	r1, r3, #255
 1218 020c 10301BE5 		ldr	r3, [fp, #-16]
 1219 0210 021C81E2 		add	r1, r1, #512
 1220 0214 013193E7 		ldr	r3, [r3, r1, lsl #2]
 1221 0218 032022E0 		eor	r2, r2, r3
 1222 021c 08301BE5 		ldr	r3, [fp, #-8]
 1223 0220 FF1003E2 		and	r1, r3, #255
 1224 0224 10301BE5 		ldr	r3, [fp, #-16]
 1225 0228 031C81E2 		add	r1, r1, #768
 1226 022c 013193E7 		ldr	r3, [r3, r1, lsl #2]
 1227 0230 033082E0 		add	r3, r2, r3
 1228 0234 0C201BE5 		ldr	r2, [fp, #-12]
 1229 0238 023023E0 		eor	r3, r3, r2
 1230 023c 0C300BE5 		str	r3, [fp, #-12]
 278:blowfish.c    ****   R (ctx, xl, xr, 4);
 1231              		.loc 1 278 3
 1232 0240 10301BE5 		ldr	r3, [fp, #-16]
 1233 0244 013A83E2 		add	r3, r3, #4096
 1234 0248 103093E5 		ldr	r3, [r3, #16]
 1235 024c 0C201BE5 		ldr	r2, [fp, #-12]
 1236 0250 023023E0 		eor	r3, r3, r2
 1237 0254 0C300BE5 		str	r3, [fp, #-12]
 1238 0258 0C301BE5 		ldr	r3, [fp, #-12]
 1239 025c 232CA0E1 		lsr	r2, r3, #24
 1240 0260 10301BE5 		ldr	r3, [fp, #-16]
 1241 0264 022193E7 		ldr	r2, [r3, r2, lsl #2]
 1242 0268 0C301BE5 		ldr	r3, [fp, #-12]
 1243 026c 2338A0E1 		lsr	r3, r3, #16
 1244 0270 FF1003E2 		and	r1, r3, #255
 1245 0274 10301BE5 		ldr	r3, [fp, #-16]
 1246 0278 011C81E2 		add	r1, r1, #256
 1247 027c 013193E7 		ldr	r3, [r3, r1, lsl #2]
 1248 0280 032082E0 		add	r2, r2, r3
 1249 0284 0C301BE5 		ldr	r3, [fp, #-12]
 1250 0288 2334A0E1 		lsr	r3, r3, #8
 1251 028c FF1003E2 		and	r1, r3, #255
 1252 0290 10301BE5 		ldr	r3, [fp, #-16]
 1253 0294 021C81E2 		add	r1, r1, #512
 1254 0298 013193E7 		ldr	r3, [r3, r1, lsl #2]
 1255 029c 032022E0 		eor	r2, r2, r3
 1256 02a0 0C301BE5 		ldr	r3, [fp, #-12]
 1257 02a4 FF1003E2 		and	r1, r3, #255
 1258 02a8 10301BE5 		ldr	r3, [fp, #-16]
 1259 02ac 031C81E2 		add	r1, r1, #768
 1260 02b0 013193E7 		ldr	r3, [r3, r1, lsl #2]
 1261 02b4 033082E0 		add	r3, r2, r3
 1262 02b8 08201BE5 		ldr	r2, [fp, #-8]
 1263 02bc 023023E0 		eor	r3, r3, r2
 1264 02c0 08300BE5 		str	r3, [fp, #-8]
 279:blowfish.c    ****   R (ctx, xr, xl, 5);
 1265              		.loc 1 279 3
 1266 02c4 10301BE5 		ldr	r3, [fp, #-16]
 1267 02c8 013A83E2 		add	r3, r3, #4096
 1268 02cc 143093E5 		ldr	r3, [r3, #20]
 1269 02d0 08201BE5 		ldr	r2, [fp, #-8]
 1270 02d4 023023E0 		eor	r3, r3, r2
 1271 02d8 08300BE5 		str	r3, [fp, #-8]
 1272 02dc 08301BE5 		ldr	r3, [fp, #-8]
 1273 02e0 232CA0E1 		lsr	r2, r3, #24
 1274 02e4 10301BE5 		ldr	r3, [fp, #-16]
 1275 02e8 022193E7 		ldr	r2, [r3, r2, lsl #2]
 1276 02ec 08301BE5 		ldr	r3, [fp, #-8]
 1277 02f0 2338A0E1 		lsr	r3, r3, #16
 1278 02f4 FF1003E2 		and	r1, r3, #255
 1279 02f8 10301BE5 		ldr	r3, [fp, #-16]
 1280 02fc 011C81E2 		add	r1, r1, #256
 1281 0300 013193E7 		ldr	r3, [r3, r1, lsl #2]
 1282 0304 032082E0 		add	r2, r2, r3
 1283 0308 08301BE5 		ldr	r3, [fp, #-8]
 1284 030c 2334A0E1 		lsr	r3, r3, #8
 1285 0310 FF1003E2 		and	r1, r3, #255
 1286 0314 10301BE5 		ldr	r3, [fp, #-16]
 1287 0318 021C81E2 		add	r1, r1, #512
 1288 031c 013193E7 		ldr	r3, [r3, r1, lsl #2]
 1289 0320 032022E0 		eor	r2, r2, r3
 1290 0324 08301BE5 		ldr	r3, [fp, #-8]
 1291 0328 FF1003E2 		and	r1, r3, #255
 1292 032c 10301BE5 		ldr	r3, [fp, #-16]
 1293 0330 031C81E2 		add	r1, r1, #768
 1294 0334 013193E7 		ldr	r3, [r3, r1, lsl #2]
 1295 0338 033082E0 		add	r3, r2, r3
 1296 033c 0C201BE5 		ldr	r2, [fp, #-12]
 1297 0340 023023E0 		eor	r3, r3, r2
 1298 0344 0C300BE5 		str	r3, [fp, #-12]
 280:blowfish.c    ****   R (ctx, xl, xr, 6);
 1299              		.loc 1 280 3
 1300 0348 10301BE5 		ldr	r3, [fp, #-16]
 1301 034c 013A83E2 		add	r3, r3, #4096
 1302 0350 183093E5 		ldr	r3, [r3, #24]
 1303 0354 0C201BE5 		ldr	r2, [fp, #-12]
 1304 0358 023023E0 		eor	r3, r3, r2
 1305 035c 0C300BE5 		str	r3, [fp, #-12]
 1306 0360 0C301BE5 		ldr	r3, [fp, #-12]
 1307 0364 232CA0E1 		lsr	r2, r3, #24
 1308 0368 10301BE5 		ldr	r3, [fp, #-16]
 1309 036c 022193E7 		ldr	r2, [r3, r2, lsl #2]
 1310 0370 0C301BE5 		ldr	r3, [fp, #-12]
 1311 0374 2338A0E1 		lsr	r3, r3, #16
 1312 0378 FF1003E2 		and	r1, r3, #255
 1313 037c 10301BE5 		ldr	r3, [fp, #-16]
 1314 0380 011C81E2 		add	r1, r1, #256
 1315 0384 013193E7 		ldr	r3, [r3, r1, lsl #2]
 1316 0388 032082E0 		add	r2, r2, r3
 1317 038c 0C301BE5 		ldr	r3, [fp, #-12]
 1318 0390 2334A0E1 		lsr	r3, r3, #8
 1319 0394 FF1003E2 		and	r1, r3, #255
 1320 0398 10301BE5 		ldr	r3, [fp, #-16]
 1321 039c 021C81E2 		add	r1, r1, #512
 1322 03a0 013193E7 		ldr	r3, [r3, r1, lsl #2]
 1323 03a4 032022E0 		eor	r2, r2, r3
 1324 03a8 0C301BE5 		ldr	r3, [fp, #-12]
 1325 03ac FF1003E2 		and	r1, r3, #255
 1326 03b0 10301BE5 		ldr	r3, [fp, #-16]
 1327 03b4 031C81E2 		add	r1, r1, #768
 1328 03b8 013193E7 		ldr	r3, [r3, r1, lsl #2]
 1329 03bc 033082E0 		add	r3, r2, r3
 1330 03c0 08201BE5 		ldr	r2, [fp, #-8]
 1331 03c4 023023E0 		eor	r3, r3, r2
 1332 03c8 08300BE5 		str	r3, [fp, #-8]
 281:blowfish.c    ****   R (ctx, xr, xl, 7);
 1333              		.loc 1 281 3
 1334 03cc 10301BE5 		ldr	r3, [fp, #-16]
 1335 03d0 013A83E2 		add	r3, r3, #4096
 1336 03d4 1C3093E5 		ldr	r3, [r3, #28]
 1337 03d8 08201BE5 		ldr	r2, [fp, #-8]
 1338 03dc 023023E0 		eor	r3, r3, r2
 1339 03e0 08300BE5 		str	r3, [fp, #-8]
 1340 03e4 08301BE5 		ldr	r3, [fp, #-8]
 1341 03e8 232CA0E1 		lsr	r2, r3, #24
 1342 03ec 10301BE5 		ldr	r3, [fp, #-16]
 1343 03f0 022193E7 		ldr	r2, [r3, r2, lsl #2]
 1344 03f4 08301BE5 		ldr	r3, [fp, #-8]
 1345 03f8 2338A0E1 		lsr	r3, r3, #16
 1346 03fc FF1003E2 		and	r1, r3, #255
 1347 0400 10301BE5 		ldr	r3, [fp, #-16]
 1348 0404 011C81E2 		add	r1, r1, #256
 1349 0408 013193E7 		ldr	r3, [r3, r1, lsl #2]
 1350 040c 032082E0 		add	r2, r2, r3
 1351 0410 08301BE5 		ldr	r3, [fp, #-8]
 1352 0414 2334A0E1 		lsr	r3, r3, #8
 1353 0418 FF1003E2 		and	r1, r3, #255
 1354 041c 10301BE5 		ldr	r3, [fp, #-16]
 1355 0420 021C81E2 		add	r1, r1, #512
 1356 0424 013193E7 		ldr	r3, [r3, r1, lsl #2]
 1357 0428 032022E0 		eor	r2, r2, r3
 1358 042c 08301BE5 		ldr	r3, [fp, #-8]
 1359 0430 FF1003E2 		and	r1, r3, #255
 1360 0434 10301BE5 		ldr	r3, [fp, #-16]
 1361 0438 031C81E2 		add	r1, r1, #768
 1362 043c 013193E7 		ldr	r3, [r3, r1, lsl #2]
 1363 0440 033082E0 		add	r3, r2, r3
 1364 0444 0C201BE5 		ldr	r2, [fp, #-12]
 1365 0448 023023E0 		eor	r3, r3, r2
 1366 044c 0C300BE5 		str	r3, [fp, #-12]
 282:blowfish.c    ****   R (ctx, xl, xr, 8);
 1367              		.loc 1 282 3
 1368 0450 10301BE5 		ldr	r3, [fp, #-16]
 1369 0454 013A83E2 		add	r3, r3, #4096
 1370 0458 203093E5 		ldr	r3, [r3, #32]
 1371 045c 0C201BE5 		ldr	r2, [fp, #-12]
 1372 0460 023023E0 		eor	r3, r3, r2
 1373 0464 0C300BE5 		str	r3, [fp, #-12]
 1374 0468 0C301BE5 		ldr	r3, [fp, #-12]
 1375 046c 232CA0E1 		lsr	r2, r3, #24
 1376 0470 10301BE5 		ldr	r3, [fp, #-16]
 1377 0474 022193E7 		ldr	r2, [r3, r2, lsl #2]
 1378 0478 0C301BE5 		ldr	r3, [fp, #-12]
 1379 047c 2338A0E1 		lsr	r3, r3, #16
 1380 0480 FF1003E2 		and	r1, r3, #255
 1381 0484 10301BE5 		ldr	r3, [fp, #-16]
 1382 0488 011C81E2 		add	r1, r1, #256
 1383 048c 013193E7 		ldr	r3, [r3, r1, lsl #2]
 1384 0490 032082E0 		add	r2, r2, r3
 1385 0494 0C301BE5 		ldr	r3, [fp, #-12]
 1386 0498 2334A0E1 		lsr	r3, r3, #8
 1387 049c FF1003E2 		and	r1, r3, #255
 1388 04a0 10301BE5 		ldr	r3, [fp, #-16]
 1389 04a4 021C81E2 		add	r1, r1, #512
 1390 04a8 013193E7 		ldr	r3, [r3, r1, lsl #2]
 1391 04ac 032022E0 		eor	r2, r2, r3
 1392 04b0 0C301BE5 		ldr	r3, [fp, #-12]
 1393 04b4 FF1003E2 		and	r1, r3, #255
 1394 04b8 10301BE5 		ldr	r3, [fp, #-16]
 1395 04bc 031C81E2 		add	r1, r1, #768
 1396 04c0 013193E7 		ldr	r3, [r3, r1, lsl #2]
 1397 04c4 033082E0 		add	r3, r2, r3
 1398 04c8 08201BE5 		ldr	r2, [fp, #-8]
 1399 04cc 023023E0 		eor	r3, r3, r2
 1400 04d0 08300BE5 		str	r3, [fp, #-8]
 283:blowfish.c    ****   R (ctx, xr, xl, 9);
 1401              		.loc 1 283 3
 1402 04d4 10301BE5 		ldr	r3, [fp, #-16]
 1403 04d8 013A83E2 		add	r3, r3, #4096
 1404 04dc 243093E5 		ldr	r3, [r3, #36]
 1405 04e0 08201BE5 		ldr	r2, [fp, #-8]
 1406 04e4 023023E0 		eor	r3, r3, r2
 1407 04e8 08300BE5 		str	r3, [fp, #-8]
 1408 04ec 08301BE5 		ldr	r3, [fp, #-8]
 1409 04f0 232CA0E1 		lsr	r2, r3, #24
 1410 04f4 10301BE5 		ldr	r3, [fp, #-16]
 1411 04f8 022193E7 		ldr	r2, [r3, r2, lsl #2]
 1412 04fc 08301BE5 		ldr	r3, [fp, #-8]
 1413 0500 2338A0E1 		lsr	r3, r3, #16
 1414 0504 FF1003E2 		and	r1, r3, #255
 1415 0508 10301BE5 		ldr	r3, [fp, #-16]
 1416 050c 011C81E2 		add	r1, r1, #256
 1417 0510 013193E7 		ldr	r3, [r3, r1, lsl #2]
 1418 0514 032082E0 		add	r2, r2, r3
 1419 0518 08301BE5 		ldr	r3, [fp, #-8]
 1420 051c 2334A0E1 		lsr	r3, r3, #8
 1421 0520 FF1003E2 		and	r1, r3, #255
 1422 0524 10301BE5 		ldr	r3, [fp, #-16]
 1423 0528 021C81E2 		add	r1, r1, #512
 1424 052c 013193E7 		ldr	r3, [r3, r1, lsl #2]
 1425 0530 032022E0 		eor	r2, r2, r3
 1426 0534 08301BE5 		ldr	r3, [fp, #-8]
 1427 0538 FF1003E2 		and	r1, r3, #255
 1428 053c 10301BE5 		ldr	r3, [fp, #-16]
 1429 0540 031C81E2 		add	r1, r1, #768
 1430 0544 013193E7 		ldr	r3, [r3, r1, lsl #2]
 1431 0548 033082E0 		add	r3, r2, r3
 1432 054c 0C201BE5 		ldr	r2, [fp, #-12]
 1433 0550 023023E0 		eor	r3, r3, r2
 1434 0554 0C300BE5 		str	r3, [fp, #-12]
 284:blowfish.c    ****   R (ctx, xl, xr, 10);
 1435              		.loc 1 284 3
 1436 0558 10301BE5 		ldr	r3, [fp, #-16]
 1437 055c 013A83E2 		add	r3, r3, #4096
 1438 0560 283093E5 		ldr	r3, [r3, #40]
 1439 0564 0C201BE5 		ldr	r2, [fp, #-12]
 1440 0568 023023E0 		eor	r3, r3, r2
 1441 056c 0C300BE5 		str	r3, [fp, #-12]
 1442 0570 0C301BE5 		ldr	r3, [fp, #-12]
 1443 0574 232CA0E1 		lsr	r2, r3, #24
 1444 0578 10301BE5 		ldr	r3, [fp, #-16]
 1445 057c 022193E7 		ldr	r2, [r3, r2, lsl #2]
 1446 0580 0C301BE5 		ldr	r3, [fp, #-12]
 1447 0584 2338A0E1 		lsr	r3, r3, #16
 1448 0588 FF1003E2 		and	r1, r3, #255
 1449 058c 10301BE5 		ldr	r3, [fp, #-16]
 1450 0590 011C81E2 		add	r1, r1, #256
 1451 0594 013193E7 		ldr	r3, [r3, r1, lsl #2]
 1452 0598 032082E0 		add	r2, r2, r3
 1453 059c 0C301BE5 		ldr	r3, [fp, #-12]
 1454 05a0 2334A0E1 		lsr	r3, r3, #8
 1455 05a4 FF1003E2 		and	r1, r3, #255
 1456 05a8 10301BE5 		ldr	r3, [fp, #-16]
 1457 05ac 021C81E2 		add	r1, r1, #512
 1458 05b0 013193E7 		ldr	r3, [r3, r1, lsl #2]
 1459 05b4 032022E0 		eor	r2, r2, r3
 1460 05b8 0C301BE5 		ldr	r3, [fp, #-12]
 1461 05bc FF1003E2 		and	r1, r3, #255
 1462 05c0 10301BE5 		ldr	r3, [fp, #-16]
 1463 05c4 031C81E2 		add	r1, r1, #768
 1464 05c8 013193E7 		ldr	r3, [r3, r1, lsl #2]
 1465 05cc 033082E0 		add	r3, r2, r3
 1466 05d0 08201BE5 		ldr	r2, [fp, #-8]
 1467 05d4 023023E0 		eor	r3, r3, r2
 1468 05d8 08300BE5 		str	r3, [fp, #-8]
 285:blowfish.c    ****   R (ctx, xr, xl, 11);
 1469              		.loc 1 285 3
 1470 05dc 10301BE5 		ldr	r3, [fp, #-16]
 1471 05e0 013A83E2 		add	r3, r3, #4096
 1472 05e4 2C3093E5 		ldr	r3, [r3, #44]
 1473 05e8 08201BE5 		ldr	r2, [fp, #-8]
 1474 05ec 023023E0 		eor	r3, r3, r2
 1475 05f0 08300BE5 		str	r3, [fp, #-8]
 1476 05f4 08301BE5 		ldr	r3, [fp, #-8]
 1477 05f8 232CA0E1 		lsr	r2, r3, #24
 1478 05fc 10301BE5 		ldr	r3, [fp, #-16]
 1479 0600 022193E7 		ldr	r2, [r3, r2, lsl #2]
 1480 0604 08301BE5 		ldr	r3, [fp, #-8]
 1481 0608 2338A0E1 		lsr	r3, r3, #16
 1482 060c FF1003E2 		and	r1, r3, #255
 1483 0610 10301BE5 		ldr	r3, [fp, #-16]
 1484 0614 011C81E2 		add	r1, r1, #256
 1485 0618 013193E7 		ldr	r3, [r3, r1, lsl #2]
 1486 061c 032082E0 		add	r2, r2, r3
 1487 0620 08301BE5 		ldr	r3, [fp, #-8]
 1488 0624 2334A0E1 		lsr	r3, r3, #8
 1489 0628 FF1003E2 		and	r1, r3, #255
 1490 062c 10301BE5 		ldr	r3, [fp, #-16]
 1491 0630 021C81E2 		add	r1, r1, #512
 1492 0634 013193E7 		ldr	r3, [r3, r1, lsl #2]
 1493 0638 032022E0 		eor	r2, r2, r3
 1494 063c 08301BE5 		ldr	r3, [fp, #-8]
 1495 0640 FF1003E2 		and	r1, r3, #255
 1496 0644 10301BE5 		ldr	r3, [fp, #-16]
 1497 0648 031C81E2 		add	r1, r1, #768
 1498 064c 013193E7 		ldr	r3, [r3, r1, lsl #2]
 1499 0650 033082E0 		add	r3, r2, r3
 1500 0654 0C201BE5 		ldr	r2, [fp, #-12]
 1501 0658 023023E0 		eor	r3, r3, r2
 1502 065c 0C300BE5 		str	r3, [fp, #-12]
 286:blowfish.c    ****   R (ctx, xl, xr, 12);
 1503              		.loc 1 286 3
 1504 0660 10301BE5 		ldr	r3, [fp, #-16]
 1505 0664 013A83E2 		add	r3, r3, #4096
 1506 0668 303093E5 		ldr	r3, [r3, #48]
 1507 066c 0C201BE5 		ldr	r2, [fp, #-12]
 1508 0670 023023E0 		eor	r3, r3, r2
 1509 0674 0C300BE5 		str	r3, [fp, #-12]
 1510 0678 0C301BE5 		ldr	r3, [fp, #-12]
 1511 067c 232CA0E1 		lsr	r2, r3, #24
 1512 0680 10301BE5 		ldr	r3, [fp, #-16]
 1513 0684 022193E7 		ldr	r2, [r3, r2, lsl #2]
 1514 0688 0C301BE5 		ldr	r3, [fp, #-12]
 1515 068c 2338A0E1 		lsr	r3, r3, #16
 1516 0690 FF1003E2 		and	r1, r3, #255
 1517 0694 10301BE5 		ldr	r3, [fp, #-16]
 1518 0698 011C81E2 		add	r1, r1, #256
 1519 069c 013193E7 		ldr	r3, [r3, r1, lsl #2]
 1520 06a0 032082E0 		add	r2, r2, r3
 1521 06a4 0C301BE5 		ldr	r3, [fp, #-12]
 1522 06a8 2334A0E1 		lsr	r3, r3, #8
 1523 06ac FF1003E2 		and	r1, r3, #255
 1524 06b0 10301BE5 		ldr	r3, [fp, #-16]
 1525 06b4 021C81E2 		add	r1, r1, #512
 1526 06b8 013193E7 		ldr	r3, [r3, r1, lsl #2]
 1527 06bc 032022E0 		eor	r2, r2, r3
 1528 06c0 0C301BE5 		ldr	r3, [fp, #-12]
 1529 06c4 FF1003E2 		and	r1, r3, #255
 1530 06c8 10301BE5 		ldr	r3, [fp, #-16]
 1531 06cc 031C81E2 		add	r1, r1, #768
 1532 06d0 013193E7 		ldr	r3, [r3, r1, lsl #2]
 1533 06d4 033082E0 		add	r3, r2, r3
 1534 06d8 08201BE5 		ldr	r2, [fp, #-8]
 1535 06dc 023023E0 		eor	r3, r3, r2
 1536 06e0 08300BE5 		str	r3, [fp, #-8]
 287:blowfish.c    ****   R (ctx, xr, xl, 13);
 1537              		.loc 1 287 3
 1538 06e4 10301BE5 		ldr	r3, [fp, #-16]
 1539 06e8 013A83E2 		add	r3, r3, #4096
 1540 06ec 343093E5 		ldr	r3, [r3, #52]
 1541 06f0 08201BE5 		ldr	r2, [fp, #-8]
 1542 06f4 023023E0 		eor	r3, r3, r2
 1543 06f8 08300BE5 		str	r3, [fp, #-8]
 1544 06fc 08301BE5 		ldr	r3, [fp, #-8]
 1545 0700 232CA0E1 		lsr	r2, r3, #24
 1546 0704 10301BE5 		ldr	r3, [fp, #-16]
 1547 0708 022193E7 		ldr	r2, [r3, r2, lsl #2]
 1548 070c 08301BE5 		ldr	r3, [fp, #-8]
 1549 0710 2338A0E1 		lsr	r3, r3, #16
 1550 0714 FF1003E2 		and	r1, r3, #255
 1551 0718 10301BE5 		ldr	r3, [fp, #-16]
 1552 071c 011C81E2 		add	r1, r1, #256
 1553 0720 013193E7 		ldr	r3, [r3, r1, lsl #2]
 1554 0724 032082E0 		add	r2, r2, r3
 1555 0728 08301BE5 		ldr	r3, [fp, #-8]
 1556 072c 2334A0E1 		lsr	r3, r3, #8
 1557 0730 FF1003E2 		and	r1, r3, #255
 1558 0734 10301BE5 		ldr	r3, [fp, #-16]
 1559 0738 021C81E2 		add	r1, r1, #512
 1560 073c 013193E7 		ldr	r3, [r3, r1, lsl #2]
 1561 0740 032022E0 		eor	r2, r2, r3
 1562 0744 08301BE5 		ldr	r3, [fp, #-8]
 1563 0748 FF1003E2 		and	r1, r3, #255
 1564 074c 10301BE5 		ldr	r3, [fp, #-16]
 1565 0750 031C81E2 		add	r1, r1, #768
 1566 0754 013193E7 		ldr	r3, [r3, r1, lsl #2]
 1567 0758 033082E0 		add	r3, r2, r3
 1568 075c 0C201BE5 		ldr	r2, [fp, #-12]
 1569 0760 023023E0 		eor	r3, r3, r2
 1570 0764 0C300BE5 		str	r3, [fp, #-12]
 288:blowfish.c    ****   R (ctx, xl, xr, 14);
 1571              		.loc 1 288 3
 1572 0768 10301BE5 		ldr	r3, [fp, #-16]
 1573 076c 013A83E2 		add	r3, r3, #4096
 1574 0770 383093E5 		ldr	r3, [r3, #56]
 1575 0774 0C201BE5 		ldr	r2, [fp, #-12]
 1576 0778 023023E0 		eor	r3, r3, r2
 1577 077c 0C300BE5 		str	r3, [fp, #-12]
 1578 0780 0C301BE5 		ldr	r3, [fp, #-12]
 1579 0784 232CA0E1 		lsr	r2, r3, #24
 1580 0788 10301BE5 		ldr	r3, [fp, #-16]
 1581 078c 022193E7 		ldr	r2, [r3, r2, lsl #2]
 1582 0790 0C301BE5 		ldr	r3, [fp, #-12]
 1583 0794 2338A0E1 		lsr	r3, r3, #16
 1584 0798 FF1003E2 		and	r1, r3, #255
 1585 079c 10301BE5 		ldr	r3, [fp, #-16]
 1586 07a0 011C81E2 		add	r1, r1, #256
 1587 07a4 013193E7 		ldr	r3, [r3, r1, lsl #2]
 1588 07a8 032082E0 		add	r2, r2, r3
 1589 07ac 0C301BE5 		ldr	r3, [fp, #-12]
 1590 07b0 2334A0E1 		lsr	r3, r3, #8
 1591 07b4 FF1003E2 		and	r1, r3, #255
 1592 07b8 10301BE5 		ldr	r3, [fp, #-16]
 1593 07bc 021C81E2 		add	r1, r1, #512
 1594 07c0 013193E7 		ldr	r3, [r3, r1, lsl #2]
 1595 07c4 032022E0 		eor	r2, r2, r3
 1596 07c8 0C301BE5 		ldr	r3, [fp, #-12]
 1597 07cc FF1003E2 		and	r1, r3, #255
 1598 07d0 10301BE5 		ldr	r3, [fp, #-16]
 1599 07d4 031C81E2 		add	r1, r1, #768
 1600 07d8 013193E7 		ldr	r3, [r3, r1, lsl #2]
 1601 07dc 033082E0 		add	r3, r2, r3
 1602 07e0 08201BE5 		ldr	r2, [fp, #-8]
 1603 07e4 023023E0 		eor	r3, r3, r2
 1604 07e8 08300BE5 		str	r3, [fp, #-8]
 289:blowfish.c    ****   R (ctx, xr, xl, 15);
 1605              		.loc 1 289 3
 1606 07ec 10301BE5 		ldr	r3, [fp, #-16]
 1607 07f0 013A83E2 		add	r3, r3, #4096
 1608 07f4 3C3093E5 		ldr	r3, [r3, #60]
 1609 07f8 08201BE5 		ldr	r2, [fp, #-8]
 1610 07fc 023023E0 		eor	r3, r3, r2
 1611 0800 08300BE5 		str	r3, [fp, #-8]
 1612 0804 08301BE5 		ldr	r3, [fp, #-8]
 1613 0808 232CA0E1 		lsr	r2, r3, #24
 1614 080c 10301BE5 		ldr	r3, [fp, #-16]
 1615 0810 022193E7 		ldr	r2, [r3, r2, lsl #2]
 1616 0814 08301BE5 		ldr	r3, [fp, #-8]
 1617 0818 2338A0E1 		lsr	r3, r3, #16
 1618 081c FF1003E2 		and	r1, r3, #255
 1619 0820 10301BE5 		ldr	r3, [fp, #-16]
 1620 0824 011C81E2 		add	r1, r1, #256
 1621 0828 013193E7 		ldr	r3, [r3, r1, lsl #2]
 1622 082c 032082E0 		add	r2, r2, r3
 1623 0830 08301BE5 		ldr	r3, [fp, #-8]
 1624 0834 2334A0E1 		lsr	r3, r3, #8
 1625 0838 FF1003E2 		and	r1, r3, #255
 1626 083c 10301BE5 		ldr	r3, [fp, #-16]
 1627 0840 021C81E2 		add	r1, r1, #512
 1628 0844 013193E7 		ldr	r3, [r3, r1, lsl #2]
 1629 0848 032022E0 		eor	r2, r2, r3
 1630 084c 08301BE5 		ldr	r3, [fp, #-8]
 1631 0850 FF1003E2 		and	r1, r3, #255
 1632 0854 10301BE5 		ldr	r3, [fp, #-16]
 1633 0858 031C81E2 		add	r1, r1, #768
 1634 085c 013193E7 		ldr	r3, [r3, r1, lsl #2]
 1635 0860 033082E0 		add	r3, r2, r3
 1636 0864 0C201BE5 		ldr	r2, [fp, #-12]
 1637 0868 023023E0 		eor	r3, r3, r2
 1638 086c 0C300BE5 		str	r3, [fp, #-12]
 290:blowfish.c    **** 
 291:blowfish.c    ****   xl ^= ctx->p[_BLOWFISH_ROUNDS];
 1639              		.loc 1 291 15
 1640 0870 10301BE5 		ldr	r3, [fp, #-16]
 1641 0874 013A83E2 		add	r3, r3, #4096
 1642 0878 403093E5 		ldr	r3, [r3, #64]
 1643              		.loc 1 291 6
 1644 087c 0C201BE5 		ldr	r2, [fp, #-12]
 1645 0880 023023E0 		eor	r3, r3, r2
 1646 0884 0C300BE5 		str	r3, [fp, #-12]
 292:blowfish.c    ****   xr ^= ctx->p[_BLOWFISH_ROUNDS + 1];
 1647              		.loc 1 292 15
 1648 0888 10301BE5 		ldr	r3, [fp, #-16]
 1649 088c 013A83E2 		add	r3, r3, #4096
 1650 0890 443093E5 		ldr	r3, [r3, #68]
 1651              		.loc 1 292 6
 1652 0894 08201BE5 		ldr	r2, [fp, #-8]
 1653 0898 023023E0 		eor	r3, r3, r2
 1654 089c 08300BE5 		str	r3, [fp, #-8]
 293:blowfish.c    **** 
 294:blowfish.c    ****   *ret_xl = xr;
 1655              		.loc 1 294 11
 1656 08a0 14301BE5 		ldr	r3, [fp, #-20]
 1657 08a4 08201BE5 		ldr	r2, [fp, #-8]
 1658 08a8 002083E5 		str	r2, [r3]
 295:blowfish.c    ****   *ret_xr = xl;
 1659              		.loc 1 295 11
 1660 08ac 18301BE5 		ldr	r3, [fp, #-24]
 1661 08b0 0C201BE5 		ldr	r2, [fp, #-12]
 1662 08b4 002083E5 		str	r2, [r3]
 296:blowfish.c    **** }
 1663              		.loc 1 296 1
 1664 08b8 0000A0E1 		nop
 1665 08bc 00D08BE2 		add	sp, fp, #0
 1666              		.cfi_def_cfa_register 13
 1667              		@ sp needed
 1668 08c0 04B09DE4 		ldr	fp, [sp], #4
 1669              		.cfi_restore 11
 1670              		.cfi_def_cfa_offset 0
 1671 08c4 1EFF2FE1 		bx	lr
 1672              		.cfi_endproc
 1673              	.LFE0:
 1675              		.align	2
 1676              		.syntax unified
 1677              		.arm
 1678              		.fpu softvfp
 1680              	decround:
 1681              	.LFB1:
 297:blowfish.c    **** 
 298:blowfish.c    **** static void
 299:blowfish.c    **** decround (const struct blowfish_ctx *ctx, uint32_t * ret_xl, uint32_t * ret_xr)
 300:blowfish.c    **** {
 1682              		.loc 1 300 1
 1683              		.cfi_startproc
 1684              		@ args = 0, pretend = 0, frame = 24
 1685              		@ frame_needed = 1, uses_anonymous_args = 0
 1686              		@ link register save eliminated.
 1687 08c8 04B02DE5 		str	fp, [sp, #-4]!
 1688              		.cfi_def_cfa_offset 4
 1689              		.cfi_offset 11, -4
 1690 08cc 00B08DE2 		add	fp, sp, #0
 1691              		.cfi_def_cfa_register 11
 1692 08d0 1CD04DE2 		sub	sp, sp, #28
 1693 08d4 10000BE5 		str	r0, [fp, #-16]
 1694 08d8 14100BE5 		str	r1, [fp, #-20]
 1695 08dc 18200BE5 		str	r2, [fp, #-24]
 301:blowfish.c    ****   uint32_t xl, xr;
 302:blowfish.c    **** 
 303:blowfish.c    ****   xl = *ret_xl;
 1696              		.loc 1 303 6
 1697 08e0 14301BE5 		ldr	r3, [fp, #-20]
 1698 08e4 003093E5 		ldr	r3, [r3]
 1699 08e8 0C300BE5 		str	r3, [fp, #-12]
 304:blowfish.c    ****   xr = *ret_xr;
 1700              		.loc 1 304 6
 1701 08ec 18301BE5 		ldr	r3, [fp, #-24]
 1702 08f0 003093E5 		ldr	r3, [r3]
 1703 08f4 08300BE5 		str	r3, [fp, #-8]
 305:blowfish.c    **** 
 306:blowfish.c    ****   R (ctx, xl, xr, 17);
 1704              		.loc 1 306 3
 1705 08f8 10301BE5 		ldr	r3, [fp, #-16]
 1706 08fc 013A83E2 		add	r3, r3, #4096
 1707 0900 443093E5 		ldr	r3, [r3, #68]
 1708 0904 0C201BE5 		ldr	r2, [fp, #-12]
 1709 0908 023023E0 		eor	r3, r3, r2
 1710 090c 0C300BE5 		str	r3, [fp, #-12]
 1711 0910 0C301BE5 		ldr	r3, [fp, #-12]
 1712 0914 232CA0E1 		lsr	r2, r3, #24
 1713 0918 10301BE5 		ldr	r3, [fp, #-16]
 1714 091c 022193E7 		ldr	r2, [r3, r2, lsl #2]
 1715 0920 0C301BE5 		ldr	r3, [fp, #-12]
 1716 0924 2338A0E1 		lsr	r3, r3, #16
 1717 0928 FF1003E2 		and	r1, r3, #255
 1718 092c 10301BE5 		ldr	r3, [fp, #-16]
 1719 0930 011C81E2 		add	r1, r1, #256
 1720 0934 013193E7 		ldr	r3, [r3, r1, lsl #2]
 1721 0938 032082E0 		add	r2, r2, r3
 1722 093c 0C301BE5 		ldr	r3, [fp, #-12]
 1723 0940 2334A0E1 		lsr	r3, r3, #8
 1724 0944 FF1003E2 		and	r1, r3, #255
 1725 0948 10301BE5 		ldr	r3, [fp, #-16]
 1726 094c 021C81E2 		add	r1, r1, #512
 1727 0950 013193E7 		ldr	r3, [r3, r1, lsl #2]
 1728 0954 032022E0 		eor	r2, r2, r3
 1729 0958 0C301BE5 		ldr	r3, [fp, #-12]
 1730 095c FF1003E2 		and	r1, r3, #255
 1731 0960 10301BE5 		ldr	r3, [fp, #-16]
 1732 0964 031C81E2 		add	r1, r1, #768
 1733 0968 013193E7 		ldr	r3, [r3, r1, lsl #2]
 1734 096c 033082E0 		add	r3, r2, r3
 1735 0970 08201BE5 		ldr	r2, [fp, #-8]
 1736 0974 023023E0 		eor	r3, r3, r2
 1737 0978 08300BE5 		str	r3, [fp, #-8]
 307:blowfish.c    ****   R (ctx, xr, xl, 16);
 1738              		.loc 1 307 3
 1739 097c 10301BE5 		ldr	r3, [fp, #-16]
 1740 0980 013A83E2 		add	r3, r3, #4096
 1741 0984 403093E5 		ldr	r3, [r3, #64]
 1742 0988 08201BE5 		ldr	r2, [fp, #-8]
 1743 098c 023023E0 		eor	r3, r3, r2
 1744 0990 08300BE5 		str	r3, [fp, #-8]
 1745 0994 08301BE5 		ldr	r3, [fp, #-8]
 1746 0998 232CA0E1 		lsr	r2, r3, #24
 1747 099c 10301BE5 		ldr	r3, [fp, #-16]
 1748 09a0 022193E7 		ldr	r2, [r3, r2, lsl #2]
 1749 09a4 08301BE5 		ldr	r3, [fp, #-8]
 1750 09a8 2338A0E1 		lsr	r3, r3, #16
 1751 09ac FF1003E2 		and	r1, r3, #255
 1752 09b0 10301BE5 		ldr	r3, [fp, #-16]
 1753 09b4 011C81E2 		add	r1, r1, #256
 1754 09b8 013193E7 		ldr	r3, [r3, r1, lsl #2]
 1755 09bc 032082E0 		add	r2, r2, r3
 1756 09c0 08301BE5 		ldr	r3, [fp, #-8]
 1757 09c4 2334A0E1 		lsr	r3, r3, #8
 1758 09c8 FF1003E2 		and	r1, r3, #255
 1759 09cc 10301BE5 		ldr	r3, [fp, #-16]
 1760 09d0 021C81E2 		add	r1, r1, #512
 1761 09d4 013193E7 		ldr	r3, [r3, r1, lsl #2]
 1762 09d8 032022E0 		eor	r2, r2, r3
 1763 09dc 08301BE5 		ldr	r3, [fp, #-8]
 1764 09e0 FF1003E2 		and	r1, r3, #255
 1765 09e4 10301BE5 		ldr	r3, [fp, #-16]
 1766 09e8 031C81E2 		add	r1, r1, #768
 1767 09ec 013193E7 		ldr	r3, [r3, r1, lsl #2]
 1768 09f0 033082E0 		add	r3, r2, r3
 1769 09f4 0C201BE5 		ldr	r2, [fp, #-12]
 1770 09f8 023023E0 		eor	r3, r3, r2
 1771 09fc 0C300BE5 		str	r3, [fp, #-12]
 308:blowfish.c    ****   R (ctx, xl, xr, 15);
 1772              		.loc 1 308 3
 1773 0a00 10301BE5 		ldr	r3, [fp, #-16]
 1774 0a04 013A83E2 		add	r3, r3, #4096
 1775 0a08 3C3093E5 		ldr	r3, [r3, #60]
 1776 0a0c 0C201BE5 		ldr	r2, [fp, #-12]
 1777 0a10 023023E0 		eor	r3, r3, r2
 1778 0a14 0C300BE5 		str	r3, [fp, #-12]
 1779 0a18 0C301BE5 		ldr	r3, [fp, #-12]
 1780 0a1c 232CA0E1 		lsr	r2, r3, #24
 1781 0a20 10301BE5 		ldr	r3, [fp, #-16]
 1782 0a24 022193E7 		ldr	r2, [r3, r2, lsl #2]
 1783 0a28 0C301BE5 		ldr	r3, [fp, #-12]
 1784 0a2c 2338A0E1 		lsr	r3, r3, #16
 1785 0a30 FF1003E2 		and	r1, r3, #255
 1786 0a34 10301BE5 		ldr	r3, [fp, #-16]
 1787 0a38 011C81E2 		add	r1, r1, #256
 1788 0a3c 013193E7 		ldr	r3, [r3, r1, lsl #2]
 1789 0a40 032082E0 		add	r2, r2, r3
 1790 0a44 0C301BE5 		ldr	r3, [fp, #-12]
 1791 0a48 2334A0E1 		lsr	r3, r3, #8
 1792 0a4c FF1003E2 		and	r1, r3, #255
 1793 0a50 10301BE5 		ldr	r3, [fp, #-16]
 1794 0a54 021C81E2 		add	r1, r1, #512
 1795 0a58 013193E7 		ldr	r3, [r3, r1, lsl #2]
 1796 0a5c 032022E0 		eor	r2, r2, r3
 1797 0a60 0C301BE5 		ldr	r3, [fp, #-12]
 1798 0a64 FF1003E2 		and	r1, r3, #255
 1799 0a68 10301BE5 		ldr	r3, [fp, #-16]
 1800 0a6c 031C81E2 		add	r1, r1, #768
 1801 0a70 013193E7 		ldr	r3, [r3, r1, lsl #2]
 1802 0a74 033082E0 		add	r3, r2, r3
 1803 0a78 08201BE5 		ldr	r2, [fp, #-8]
 1804 0a7c 023023E0 		eor	r3, r3, r2
 1805 0a80 08300BE5 		str	r3, [fp, #-8]
 309:blowfish.c    ****   R (ctx, xr, xl, 14);
 1806              		.loc 1 309 3
 1807 0a84 10301BE5 		ldr	r3, [fp, #-16]
 1808 0a88 013A83E2 		add	r3, r3, #4096
 1809 0a8c 383093E5 		ldr	r3, [r3, #56]
 1810 0a90 08201BE5 		ldr	r2, [fp, #-8]
 1811 0a94 023023E0 		eor	r3, r3, r2
 1812 0a98 08300BE5 		str	r3, [fp, #-8]
 1813 0a9c 08301BE5 		ldr	r3, [fp, #-8]
 1814 0aa0 232CA0E1 		lsr	r2, r3, #24
 1815 0aa4 10301BE5 		ldr	r3, [fp, #-16]
 1816 0aa8 022193E7 		ldr	r2, [r3, r2, lsl #2]
 1817 0aac 08301BE5 		ldr	r3, [fp, #-8]
 1818 0ab0 2338A0E1 		lsr	r3, r3, #16
 1819 0ab4 FF1003E2 		and	r1, r3, #255
 1820 0ab8 10301BE5 		ldr	r3, [fp, #-16]
 1821 0abc 011C81E2 		add	r1, r1, #256
 1822 0ac0 013193E7 		ldr	r3, [r3, r1, lsl #2]
 1823 0ac4 032082E0 		add	r2, r2, r3
 1824 0ac8 08301BE5 		ldr	r3, [fp, #-8]
 1825 0acc 2334A0E1 		lsr	r3, r3, #8
 1826 0ad0 FF1003E2 		and	r1, r3, #255
 1827 0ad4 10301BE5 		ldr	r3, [fp, #-16]
 1828 0ad8 021C81E2 		add	r1, r1, #512
 1829 0adc 013193E7 		ldr	r3, [r3, r1, lsl #2]
 1830 0ae0 032022E0 		eor	r2, r2, r3
 1831 0ae4 08301BE5 		ldr	r3, [fp, #-8]
 1832 0ae8 FF1003E2 		and	r1, r3, #255
 1833 0aec 10301BE5 		ldr	r3, [fp, #-16]
 1834 0af0 031C81E2 		add	r1, r1, #768
 1835 0af4 013193E7 		ldr	r3, [r3, r1, lsl #2]
 1836 0af8 033082E0 		add	r3, r2, r3
 1837 0afc 0C201BE5 		ldr	r2, [fp, #-12]
 1838 0b00 023023E0 		eor	r3, r3, r2
 1839 0b04 0C300BE5 		str	r3, [fp, #-12]
 310:blowfish.c    ****   R (ctx, xl, xr, 13);
 1840              		.loc 1 310 3
 1841 0b08 10301BE5 		ldr	r3, [fp, #-16]
 1842 0b0c 013A83E2 		add	r3, r3, #4096
 1843 0b10 343093E5 		ldr	r3, [r3, #52]
 1844 0b14 0C201BE5 		ldr	r2, [fp, #-12]
 1845 0b18 023023E0 		eor	r3, r3, r2
 1846 0b1c 0C300BE5 		str	r3, [fp, #-12]
 1847 0b20 0C301BE5 		ldr	r3, [fp, #-12]
 1848 0b24 232CA0E1 		lsr	r2, r3, #24
 1849 0b28 10301BE5 		ldr	r3, [fp, #-16]
 1850 0b2c 022193E7 		ldr	r2, [r3, r2, lsl #2]
 1851 0b30 0C301BE5 		ldr	r3, [fp, #-12]
 1852 0b34 2338A0E1 		lsr	r3, r3, #16
 1853 0b38 FF1003E2 		and	r1, r3, #255
 1854 0b3c 10301BE5 		ldr	r3, [fp, #-16]
 1855 0b40 011C81E2 		add	r1, r1, #256
 1856 0b44 013193E7 		ldr	r3, [r3, r1, lsl #2]
 1857 0b48 032082E0 		add	r2, r2, r3
 1858 0b4c 0C301BE5 		ldr	r3, [fp, #-12]
 1859 0b50 2334A0E1 		lsr	r3, r3, #8
 1860 0b54 FF1003E2 		and	r1, r3, #255
 1861 0b58 10301BE5 		ldr	r3, [fp, #-16]
 1862 0b5c 021C81E2 		add	r1, r1, #512
 1863 0b60 013193E7 		ldr	r3, [r3, r1, lsl #2]
 1864 0b64 032022E0 		eor	r2, r2, r3
 1865 0b68 0C301BE5 		ldr	r3, [fp, #-12]
 1866 0b6c FF1003E2 		and	r1, r3, #255
 1867 0b70 10301BE5 		ldr	r3, [fp, #-16]
 1868 0b74 031C81E2 		add	r1, r1, #768
 1869 0b78 013193E7 		ldr	r3, [r3, r1, lsl #2]
 1870 0b7c 033082E0 		add	r3, r2, r3
 1871 0b80 08201BE5 		ldr	r2, [fp, #-8]
 1872 0b84 023023E0 		eor	r3, r3, r2
 1873 0b88 08300BE5 		str	r3, [fp, #-8]
 311:blowfish.c    ****   R (ctx, xr, xl, 12);
 1874              		.loc 1 311 3
 1875 0b8c 10301BE5 		ldr	r3, [fp, #-16]
 1876 0b90 013A83E2 		add	r3, r3, #4096
 1877 0b94 303093E5 		ldr	r3, [r3, #48]
 1878 0b98 08201BE5 		ldr	r2, [fp, #-8]
 1879 0b9c 023023E0 		eor	r3, r3, r2
 1880 0ba0 08300BE5 		str	r3, [fp, #-8]
 1881 0ba4 08301BE5 		ldr	r3, [fp, #-8]
 1882 0ba8 232CA0E1 		lsr	r2, r3, #24
 1883 0bac 10301BE5 		ldr	r3, [fp, #-16]
 1884 0bb0 022193E7 		ldr	r2, [r3, r2, lsl #2]
 1885 0bb4 08301BE5 		ldr	r3, [fp, #-8]
 1886 0bb8 2338A0E1 		lsr	r3, r3, #16
 1887 0bbc FF1003E2 		and	r1, r3, #255
 1888 0bc0 10301BE5 		ldr	r3, [fp, #-16]
 1889 0bc4 011C81E2 		add	r1, r1, #256
 1890 0bc8 013193E7 		ldr	r3, [r3, r1, lsl #2]
 1891 0bcc 032082E0 		add	r2, r2, r3
 1892 0bd0 08301BE5 		ldr	r3, [fp, #-8]
 1893 0bd4 2334A0E1 		lsr	r3, r3, #8
 1894 0bd8 FF1003E2 		and	r1, r3, #255
 1895 0bdc 10301BE5 		ldr	r3, [fp, #-16]
 1896 0be0 021C81E2 		add	r1, r1, #512
 1897 0be4 013193E7 		ldr	r3, [r3, r1, lsl #2]
 1898 0be8 032022E0 		eor	r2, r2, r3
 1899 0bec 08301BE5 		ldr	r3, [fp, #-8]
 1900 0bf0 FF1003E2 		and	r1, r3, #255
 1901 0bf4 10301BE5 		ldr	r3, [fp, #-16]
 1902 0bf8 031C81E2 		add	r1, r1, #768
 1903 0bfc 013193E7 		ldr	r3, [r3, r1, lsl #2]
 1904 0c00 033082E0 		add	r3, r2, r3
 1905 0c04 0C201BE5 		ldr	r2, [fp, #-12]
 1906 0c08 023023E0 		eor	r3, r3, r2
 1907 0c0c 0C300BE5 		str	r3, [fp, #-12]
 312:blowfish.c    ****   R (ctx, xl, xr, 11);
 1908              		.loc 1 312 3
 1909 0c10 10301BE5 		ldr	r3, [fp, #-16]
 1910 0c14 013A83E2 		add	r3, r3, #4096
 1911 0c18 2C3093E5 		ldr	r3, [r3, #44]
 1912 0c1c 0C201BE5 		ldr	r2, [fp, #-12]
 1913 0c20 023023E0 		eor	r3, r3, r2
 1914 0c24 0C300BE5 		str	r3, [fp, #-12]
 1915 0c28 0C301BE5 		ldr	r3, [fp, #-12]
 1916 0c2c 232CA0E1 		lsr	r2, r3, #24
 1917 0c30 10301BE5 		ldr	r3, [fp, #-16]
 1918 0c34 022193E7 		ldr	r2, [r3, r2, lsl #2]
 1919 0c38 0C301BE5 		ldr	r3, [fp, #-12]
 1920 0c3c 2338A0E1 		lsr	r3, r3, #16
 1921 0c40 FF1003E2 		and	r1, r3, #255
 1922 0c44 10301BE5 		ldr	r3, [fp, #-16]
 1923 0c48 011C81E2 		add	r1, r1, #256
 1924 0c4c 013193E7 		ldr	r3, [r3, r1, lsl #2]
 1925 0c50 032082E0 		add	r2, r2, r3
 1926 0c54 0C301BE5 		ldr	r3, [fp, #-12]
 1927 0c58 2334A0E1 		lsr	r3, r3, #8
 1928 0c5c FF1003E2 		and	r1, r3, #255
 1929 0c60 10301BE5 		ldr	r3, [fp, #-16]
 1930 0c64 021C81E2 		add	r1, r1, #512
 1931 0c68 013193E7 		ldr	r3, [r3, r1, lsl #2]
 1932 0c6c 032022E0 		eor	r2, r2, r3
 1933 0c70 0C301BE5 		ldr	r3, [fp, #-12]
 1934 0c74 FF1003E2 		and	r1, r3, #255
 1935 0c78 10301BE5 		ldr	r3, [fp, #-16]
 1936 0c7c 031C81E2 		add	r1, r1, #768
 1937 0c80 013193E7 		ldr	r3, [r3, r1, lsl #2]
 1938 0c84 033082E0 		add	r3, r2, r3
 1939 0c88 08201BE5 		ldr	r2, [fp, #-8]
 1940 0c8c 023023E0 		eor	r3, r3, r2
 1941 0c90 08300BE5 		str	r3, [fp, #-8]
 313:blowfish.c    ****   R (ctx, xr, xl, 10);
 1942              		.loc 1 313 3
 1943 0c94 10301BE5 		ldr	r3, [fp, #-16]
 1944 0c98 013A83E2 		add	r3, r3, #4096
 1945 0c9c 283093E5 		ldr	r3, [r3, #40]
 1946 0ca0 08201BE5 		ldr	r2, [fp, #-8]
 1947 0ca4 023023E0 		eor	r3, r3, r2
 1948 0ca8 08300BE5 		str	r3, [fp, #-8]
 1949 0cac 08301BE5 		ldr	r3, [fp, #-8]
 1950 0cb0 232CA0E1 		lsr	r2, r3, #24
 1951 0cb4 10301BE5 		ldr	r3, [fp, #-16]
 1952 0cb8 022193E7 		ldr	r2, [r3, r2, lsl #2]
 1953 0cbc 08301BE5 		ldr	r3, [fp, #-8]
 1954 0cc0 2338A0E1 		lsr	r3, r3, #16
 1955 0cc4 FF1003E2 		and	r1, r3, #255
 1956 0cc8 10301BE5 		ldr	r3, [fp, #-16]
 1957 0ccc 011C81E2 		add	r1, r1, #256
 1958 0cd0 013193E7 		ldr	r3, [r3, r1, lsl #2]
 1959 0cd4 032082E0 		add	r2, r2, r3
 1960 0cd8 08301BE5 		ldr	r3, [fp, #-8]
 1961 0cdc 2334A0E1 		lsr	r3, r3, #8
 1962 0ce0 FF1003E2 		and	r1, r3, #255
 1963 0ce4 10301BE5 		ldr	r3, [fp, #-16]
 1964 0ce8 021C81E2 		add	r1, r1, #512
 1965 0cec 013193E7 		ldr	r3, [r3, r1, lsl #2]
 1966 0cf0 032022E0 		eor	r2, r2, r3
 1967 0cf4 08301BE5 		ldr	r3, [fp, #-8]
 1968 0cf8 FF1003E2 		and	r1, r3, #255
 1969 0cfc 10301BE5 		ldr	r3, [fp, #-16]
 1970 0d00 031C81E2 		add	r1, r1, #768
 1971 0d04 013193E7 		ldr	r3, [r3, r1, lsl #2]
 1972 0d08 033082E0 		add	r3, r2, r3
 1973 0d0c 0C201BE5 		ldr	r2, [fp, #-12]
 1974 0d10 023023E0 		eor	r3, r3, r2
 1975 0d14 0C300BE5 		str	r3, [fp, #-12]
 314:blowfish.c    ****   R (ctx, xl, xr, 9);
 1976              		.loc 1 314 3
 1977 0d18 10301BE5 		ldr	r3, [fp, #-16]
 1978 0d1c 013A83E2 		add	r3, r3, #4096
 1979 0d20 243093E5 		ldr	r3, [r3, #36]
 1980 0d24 0C201BE5 		ldr	r2, [fp, #-12]
 1981 0d28 023023E0 		eor	r3, r3, r2
 1982 0d2c 0C300BE5 		str	r3, [fp, #-12]
 1983 0d30 0C301BE5 		ldr	r3, [fp, #-12]
 1984 0d34 232CA0E1 		lsr	r2, r3, #24
 1985 0d38 10301BE5 		ldr	r3, [fp, #-16]
 1986 0d3c 022193E7 		ldr	r2, [r3, r2, lsl #2]
 1987 0d40 0C301BE5 		ldr	r3, [fp, #-12]
 1988 0d44 2338A0E1 		lsr	r3, r3, #16
 1989 0d48 FF1003E2 		and	r1, r3, #255
 1990 0d4c 10301BE5 		ldr	r3, [fp, #-16]
 1991 0d50 011C81E2 		add	r1, r1, #256
 1992 0d54 013193E7 		ldr	r3, [r3, r1, lsl #2]
 1993 0d58 032082E0 		add	r2, r2, r3
 1994 0d5c 0C301BE5 		ldr	r3, [fp, #-12]
 1995 0d60 2334A0E1 		lsr	r3, r3, #8
 1996 0d64 FF1003E2 		and	r1, r3, #255
 1997 0d68 10301BE5 		ldr	r3, [fp, #-16]
 1998 0d6c 021C81E2 		add	r1, r1, #512
 1999 0d70 013193E7 		ldr	r3, [r3, r1, lsl #2]
 2000 0d74 032022E0 		eor	r2, r2, r3
 2001 0d78 0C301BE5 		ldr	r3, [fp, #-12]
 2002 0d7c FF1003E2 		and	r1, r3, #255
 2003 0d80 10301BE5 		ldr	r3, [fp, #-16]
 2004 0d84 031C81E2 		add	r1, r1, #768
 2005 0d88 013193E7 		ldr	r3, [r3, r1, lsl #2]
 2006 0d8c 033082E0 		add	r3, r2, r3
 2007 0d90 08201BE5 		ldr	r2, [fp, #-8]
 2008 0d94 023023E0 		eor	r3, r3, r2
 2009 0d98 08300BE5 		str	r3, [fp, #-8]
 315:blowfish.c    ****   R (ctx, xr, xl, 8);
 2010              		.loc 1 315 3
 2011 0d9c 10301BE5 		ldr	r3, [fp, #-16]
 2012 0da0 013A83E2 		add	r3, r3, #4096
 2013 0da4 203093E5 		ldr	r3, [r3, #32]
 2014 0da8 08201BE5 		ldr	r2, [fp, #-8]
 2015 0dac 023023E0 		eor	r3, r3, r2
 2016 0db0 08300BE5 		str	r3, [fp, #-8]
 2017 0db4 08301BE5 		ldr	r3, [fp, #-8]
 2018 0db8 232CA0E1 		lsr	r2, r3, #24
 2019 0dbc 10301BE5 		ldr	r3, [fp, #-16]
 2020 0dc0 022193E7 		ldr	r2, [r3, r2, lsl #2]
 2021 0dc4 08301BE5 		ldr	r3, [fp, #-8]
 2022 0dc8 2338A0E1 		lsr	r3, r3, #16
 2023 0dcc FF1003E2 		and	r1, r3, #255
 2024 0dd0 10301BE5 		ldr	r3, [fp, #-16]
 2025 0dd4 011C81E2 		add	r1, r1, #256
 2026 0dd8 013193E7 		ldr	r3, [r3, r1, lsl #2]
 2027 0ddc 032082E0 		add	r2, r2, r3
 2028 0de0 08301BE5 		ldr	r3, [fp, #-8]
 2029 0de4 2334A0E1 		lsr	r3, r3, #8
 2030 0de8 FF1003E2 		and	r1, r3, #255
 2031 0dec 10301BE5 		ldr	r3, [fp, #-16]
 2032 0df0 021C81E2 		add	r1, r1, #512
 2033 0df4 013193E7 		ldr	r3, [r3, r1, lsl #2]
 2034 0df8 032022E0 		eor	r2, r2, r3
 2035 0dfc 08301BE5 		ldr	r3, [fp, #-8]
 2036 0e00 FF1003E2 		and	r1, r3, #255
 2037 0e04 10301BE5 		ldr	r3, [fp, #-16]
 2038 0e08 031C81E2 		add	r1, r1, #768
 2039 0e0c 013193E7 		ldr	r3, [r3, r1, lsl #2]
 2040 0e10 033082E0 		add	r3, r2, r3
 2041 0e14 0C201BE5 		ldr	r2, [fp, #-12]
 2042 0e18 023023E0 		eor	r3, r3, r2
 2043 0e1c 0C300BE5 		str	r3, [fp, #-12]
 316:blowfish.c    ****   R (ctx, xl, xr, 7);
 2044              		.loc 1 316 3
 2045 0e20 10301BE5 		ldr	r3, [fp, #-16]
 2046 0e24 013A83E2 		add	r3, r3, #4096
 2047 0e28 1C3093E5 		ldr	r3, [r3, #28]
 2048 0e2c 0C201BE5 		ldr	r2, [fp, #-12]
 2049 0e30 023023E0 		eor	r3, r3, r2
 2050 0e34 0C300BE5 		str	r3, [fp, #-12]
 2051 0e38 0C301BE5 		ldr	r3, [fp, #-12]
 2052 0e3c 232CA0E1 		lsr	r2, r3, #24
 2053 0e40 10301BE5 		ldr	r3, [fp, #-16]
 2054 0e44 022193E7 		ldr	r2, [r3, r2, lsl #2]
 2055 0e48 0C301BE5 		ldr	r3, [fp, #-12]
 2056 0e4c 2338A0E1 		lsr	r3, r3, #16
 2057 0e50 FF1003E2 		and	r1, r3, #255
 2058 0e54 10301BE5 		ldr	r3, [fp, #-16]
 2059 0e58 011C81E2 		add	r1, r1, #256
 2060 0e5c 013193E7 		ldr	r3, [r3, r1, lsl #2]
 2061 0e60 032082E0 		add	r2, r2, r3
 2062 0e64 0C301BE5 		ldr	r3, [fp, #-12]
 2063 0e68 2334A0E1 		lsr	r3, r3, #8
 2064 0e6c FF1003E2 		and	r1, r3, #255
 2065 0e70 10301BE5 		ldr	r3, [fp, #-16]
 2066 0e74 021C81E2 		add	r1, r1, #512
 2067 0e78 013193E7 		ldr	r3, [r3, r1, lsl #2]
 2068 0e7c 032022E0 		eor	r2, r2, r3
 2069 0e80 0C301BE5 		ldr	r3, [fp, #-12]
 2070 0e84 FF1003E2 		and	r1, r3, #255
 2071 0e88 10301BE5 		ldr	r3, [fp, #-16]
 2072 0e8c 031C81E2 		add	r1, r1, #768
 2073 0e90 013193E7 		ldr	r3, [r3, r1, lsl #2]
 2074 0e94 033082E0 		add	r3, r2, r3
 2075 0e98 08201BE5 		ldr	r2, [fp, #-8]
 2076 0e9c 023023E0 		eor	r3, r3, r2
 2077 0ea0 08300BE5 		str	r3, [fp, #-8]
 317:blowfish.c    ****   R (ctx, xr, xl, 6);
 2078              		.loc 1 317 3
 2079 0ea4 10301BE5 		ldr	r3, [fp, #-16]
 2080 0ea8 013A83E2 		add	r3, r3, #4096
 2081 0eac 183093E5 		ldr	r3, [r3, #24]
 2082 0eb0 08201BE5 		ldr	r2, [fp, #-8]
 2083 0eb4 023023E0 		eor	r3, r3, r2
 2084 0eb8 08300BE5 		str	r3, [fp, #-8]
 2085 0ebc 08301BE5 		ldr	r3, [fp, #-8]
 2086 0ec0 232CA0E1 		lsr	r2, r3, #24
 2087 0ec4 10301BE5 		ldr	r3, [fp, #-16]
 2088 0ec8 022193E7 		ldr	r2, [r3, r2, lsl #2]
 2089 0ecc 08301BE5 		ldr	r3, [fp, #-8]
 2090 0ed0 2338A0E1 		lsr	r3, r3, #16
 2091 0ed4 FF1003E2 		and	r1, r3, #255
 2092 0ed8 10301BE5 		ldr	r3, [fp, #-16]
 2093 0edc 011C81E2 		add	r1, r1, #256
 2094 0ee0 013193E7 		ldr	r3, [r3, r1, lsl #2]
 2095 0ee4 032082E0 		add	r2, r2, r3
 2096 0ee8 08301BE5 		ldr	r3, [fp, #-8]
 2097 0eec 2334A0E1 		lsr	r3, r3, #8
 2098 0ef0 FF1003E2 		and	r1, r3, #255
 2099 0ef4 10301BE5 		ldr	r3, [fp, #-16]
 2100 0ef8 021C81E2 		add	r1, r1, #512
 2101 0efc 013193E7 		ldr	r3, [r3, r1, lsl #2]
 2102 0f00 032022E0 		eor	r2, r2, r3
 2103 0f04 08301BE5 		ldr	r3, [fp, #-8]
 2104 0f08 FF1003E2 		and	r1, r3, #255
 2105 0f0c 10301BE5 		ldr	r3, [fp, #-16]
 2106 0f10 031C81E2 		add	r1, r1, #768
 2107 0f14 013193E7 		ldr	r3, [r3, r1, lsl #2]
 2108 0f18 033082E0 		add	r3, r2, r3
 2109 0f1c 0C201BE5 		ldr	r2, [fp, #-12]
 2110 0f20 023023E0 		eor	r3, r3, r2
 2111 0f24 0C300BE5 		str	r3, [fp, #-12]
 318:blowfish.c    ****   R (ctx, xl, xr, 5);
 2112              		.loc 1 318 3
 2113 0f28 10301BE5 		ldr	r3, [fp, #-16]
 2114 0f2c 013A83E2 		add	r3, r3, #4096
 2115 0f30 143093E5 		ldr	r3, [r3, #20]
 2116 0f34 0C201BE5 		ldr	r2, [fp, #-12]
 2117 0f38 023023E0 		eor	r3, r3, r2
 2118 0f3c 0C300BE5 		str	r3, [fp, #-12]
 2119 0f40 0C301BE5 		ldr	r3, [fp, #-12]
 2120 0f44 232CA0E1 		lsr	r2, r3, #24
 2121 0f48 10301BE5 		ldr	r3, [fp, #-16]
 2122 0f4c 022193E7 		ldr	r2, [r3, r2, lsl #2]
 2123 0f50 0C301BE5 		ldr	r3, [fp, #-12]
 2124 0f54 2338A0E1 		lsr	r3, r3, #16
 2125 0f58 FF1003E2 		and	r1, r3, #255
 2126 0f5c 10301BE5 		ldr	r3, [fp, #-16]
 2127 0f60 011C81E2 		add	r1, r1, #256
 2128 0f64 013193E7 		ldr	r3, [r3, r1, lsl #2]
 2129 0f68 032082E0 		add	r2, r2, r3
 2130 0f6c 0C301BE5 		ldr	r3, [fp, #-12]
 2131 0f70 2334A0E1 		lsr	r3, r3, #8
 2132 0f74 FF1003E2 		and	r1, r3, #255
 2133 0f78 10301BE5 		ldr	r3, [fp, #-16]
 2134 0f7c 021C81E2 		add	r1, r1, #512
 2135 0f80 013193E7 		ldr	r3, [r3, r1, lsl #2]
 2136 0f84 032022E0 		eor	r2, r2, r3
 2137 0f88 0C301BE5 		ldr	r3, [fp, #-12]
 2138 0f8c FF1003E2 		and	r1, r3, #255
 2139 0f90 10301BE5 		ldr	r3, [fp, #-16]
 2140 0f94 031C81E2 		add	r1, r1, #768
 2141 0f98 013193E7 		ldr	r3, [r3, r1, lsl #2]
 2142 0f9c 033082E0 		add	r3, r2, r3
 2143 0fa0 08201BE5 		ldr	r2, [fp, #-8]
 2144 0fa4 023023E0 		eor	r3, r3, r2
 2145 0fa8 08300BE5 		str	r3, [fp, #-8]
 319:blowfish.c    ****   R (ctx, xr, xl, 4);
 2146              		.loc 1 319 3
 2147 0fac 10301BE5 		ldr	r3, [fp, #-16]
 2148 0fb0 013A83E2 		add	r3, r3, #4096
 2149 0fb4 103093E5 		ldr	r3, [r3, #16]
 2150 0fb8 08201BE5 		ldr	r2, [fp, #-8]
 2151 0fbc 023023E0 		eor	r3, r3, r2
 2152 0fc0 08300BE5 		str	r3, [fp, #-8]
 2153 0fc4 08301BE5 		ldr	r3, [fp, #-8]
 2154 0fc8 232CA0E1 		lsr	r2, r3, #24
 2155 0fcc 10301BE5 		ldr	r3, [fp, #-16]
 2156 0fd0 022193E7 		ldr	r2, [r3, r2, lsl #2]
 2157 0fd4 08301BE5 		ldr	r3, [fp, #-8]
 2158 0fd8 2338A0E1 		lsr	r3, r3, #16
 2159 0fdc FF1003E2 		and	r1, r3, #255
 2160 0fe0 10301BE5 		ldr	r3, [fp, #-16]
 2161 0fe4 011C81E2 		add	r1, r1, #256
 2162 0fe8 013193E7 		ldr	r3, [r3, r1, lsl #2]
 2163 0fec 032082E0 		add	r2, r2, r3
 2164 0ff0 08301BE5 		ldr	r3, [fp, #-8]
 2165 0ff4 2334A0E1 		lsr	r3, r3, #8
 2166 0ff8 FF1003E2 		and	r1, r3, #255
 2167 0ffc 10301BE5 		ldr	r3, [fp, #-16]
 2168 1000 021C81E2 		add	r1, r1, #512
 2169 1004 013193E7 		ldr	r3, [r3, r1, lsl #2]
 2170 1008 032022E0 		eor	r2, r2, r3
 2171 100c 08301BE5 		ldr	r3, [fp, #-8]
 2172 1010 FF1003E2 		and	r1, r3, #255
 2173 1014 10301BE5 		ldr	r3, [fp, #-16]
 2174 1018 031C81E2 		add	r1, r1, #768
 2175 101c 013193E7 		ldr	r3, [r3, r1, lsl #2]
 2176 1020 033082E0 		add	r3, r2, r3
 2177 1024 0C201BE5 		ldr	r2, [fp, #-12]
 2178 1028 023023E0 		eor	r3, r3, r2
 2179 102c 0C300BE5 		str	r3, [fp, #-12]
 320:blowfish.c    ****   R (ctx, xl, xr, 3);
 2180              		.loc 1 320 3
 2181 1030 10301BE5 		ldr	r3, [fp, #-16]
 2182 1034 013A83E2 		add	r3, r3, #4096
 2183 1038 0C3093E5 		ldr	r3, [r3, #12]
 2184 103c 0C201BE5 		ldr	r2, [fp, #-12]
 2185 1040 023023E0 		eor	r3, r3, r2
 2186 1044 0C300BE5 		str	r3, [fp, #-12]
 2187 1048 0C301BE5 		ldr	r3, [fp, #-12]
 2188 104c 232CA0E1 		lsr	r2, r3, #24
 2189 1050 10301BE5 		ldr	r3, [fp, #-16]
 2190 1054 022193E7 		ldr	r2, [r3, r2, lsl #2]
 2191 1058 0C301BE5 		ldr	r3, [fp, #-12]
 2192 105c 2338A0E1 		lsr	r3, r3, #16
 2193 1060 FF1003E2 		and	r1, r3, #255
 2194 1064 10301BE5 		ldr	r3, [fp, #-16]
 2195 1068 011C81E2 		add	r1, r1, #256
 2196 106c 013193E7 		ldr	r3, [r3, r1, lsl #2]
 2197 1070 032082E0 		add	r2, r2, r3
 2198 1074 0C301BE5 		ldr	r3, [fp, #-12]
 2199 1078 2334A0E1 		lsr	r3, r3, #8
 2200 107c FF1003E2 		and	r1, r3, #255
 2201 1080 10301BE5 		ldr	r3, [fp, #-16]
 2202 1084 021C81E2 		add	r1, r1, #512
 2203 1088 013193E7 		ldr	r3, [r3, r1, lsl #2]
 2204 108c 032022E0 		eor	r2, r2, r3
 2205 1090 0C301BE5 		ldr	r3, [fp, #-12]
 2206 1094 FF1003E2 		and	r1, r3, #255
 2207 1098 10301BE5 		ldr	r3, [fp, #-16]
 2208 109c 031C81E2 		add	r1, r1, #768
 2209 10a0 013193E7 		ldr	r3, [r3, r1, lsl #2]
 2210 10a4 033082E0 		add	r3, r2, r3
 2211 10a8 08201BE5 		ldr	r2, [fp, #-8]
 2212 10ac 023023E0 		eor	r3, r3, r2
 2213 10b0 08300BE5 		str	r3, [fp, #-8]
 321:blowfish.c    ****   R (ctx, xr, xl, 2);
 2214              		.loc 1 321 3
 2215 10b4 10301BE5 		ldr	r3, [fp, #-16]
 2216 10b8 013A83E2 		add	r3, r3, #4096
 2217 10bc 083093E5 		ldr	r3, [r3, #8]
 2218 10c0 08201BE5 		ldr	r2, [fp, #-8]
 2219 10c4 023023E0 		eor	r3, r3, r2
 2220 10c8 08300BE5 		str	r3, [fp, #-8]
 2221 10cc 08301BE5 		ldr	r3, [fp, #-8]
 2222 10d0 232CA0E1 		lsr	r2, r3, #24
 2223 10d4 10301BE5 		ldr	r3, [fp, #-16]
 2224 10d8 022193E7 		ldr	r2, [r3, r2, lsl #2]
 2225 10dc 08301BE5 		ldr	r3, [fp, #-8]
 2226 10e0 2338A0E1 		lsr	r3, r3, #16
 2227 10e4 FF1003E2 		and	r1, r3, #255
 2228 10e8 10301BE5 		ldr	r3, [fp, #-16]
 2229 10ec 011C81E2 		add	r1, r1, #256
 2230 10f0 013193E7 		ldr	r3, [r3, r1, lsl #2]
 2231 10f4 032082E0 		add	r2, r2, r3
 2232 10f8 08301BE5 		ldr	r3, [fp, #-8]
 2233 10fc 2334A0E1 		lsr	r3, r3, #8
 2234 1100 FF1003E2 		and	r1, r3, #255
 2235 1104 10301BE5 		ldr	r3, [fp, #-16]
 2236 1108 021C81E2 		add	r1, r1, #512
 2237 110c 013193E7 		ldr	r3, [r3, r1, lsl #2]
 2238 1110 032022E0 		eor	r2, r2, r3
 2239 1114 08301BE5 		ldr	r3, [fp, #-8]
 2240 1118 FF1003E2 		and	r1, r3, #255
 2241 111c 10301BE5 		ldr	r3, [fp, #-16]
 2242 1120 031C81E2 		add	r1, r1, #768
 2243 1124 013193E7 		ldr	r3, [r3, r1, lsl #2]
 2244 1128 033082E0 		add	r3, r2, r3
 2245 112c 0C201BE5 		ldr	r2, [fp, #-12]
 2246 1130 023023E0 		eor	r3, r3, r2
 2247 1134 0C300BE5 		str	r3, [fp, #-12]
 322:blowfish.c    **** 
 323:blowfish.c    ****   xl ^= ctx->p[1];
 2248              		.loc 1 323 15
 2249 1138 10301BE5 		ldr	r3, [fp, #-16]
 2250 113c 013A83E2 		add	r3, r3, #4096
 2251 1140 043093E5 		ldr	r3, [r3, #4]
 2252              		.loc 1 323 6
 2253 1144 0C201BE5 		ldr	r2, [fp, #-12]
 2254 1148 023023E0 		eor	r3, r3, r2
 2255 114c 0C300BE5 		str	r3, [fp, #-12]
 324:blowfish.c    ****   xr ^= ctx->p[0];
 2256              		.loc 1 324 15
 2257 1150 10301BE5 		ldr	r3, [fp, #-16]
 2258 1154 013A83E2 		add	r3, r3, #4096
 2259 1158 003093E5 		ldr	r3, [r3]
 2260              		.loc 1 324 6
 2261 115c 08201BE5 		ldr	r2, [fp, #-8]
 2262 1160 023023E0 		eor	r3, r3, r2
 2263 1164 08300BE5 		str	r3, [fp, #-8]
 325:blowfish.c    **** 
 326:blowfish.c    ****   *ret_xl = xr;
 2264              		.loc 1 326 11
 2265 1168 14301BE5 		ldr	r3, [fp, #-20]
 2266 116c 08201BE5 		ldr	r2, [fp, #-8]
 2267 1170 002083E5 		str	r2, [r3]
 327:blowfish.c    ****   *ret_xr = xl;
 2268              		.loc 1 327 11
 2269 1174 18301BE5 		ldr	r3, [fp, #-24]
 2270 1178 0C201BE5 		ldr	r2, [fp, #-12]
 2271 117c 002083E5 		str	r2, [r3]
 328:blowfish.c    **** }
 2272              		.loc 1 328 1
 2273 1180 0000A0E1 		nop
 2274 1184 00D08BE2 		add	sp, fp, #0
 2275              		.cfi_def_cfa_register 13
 2276              		@ sp needed
 2277 1188 04B09DE4 		ldr	fp, [sp], #4
 2278              		.cfi_restore 11
 2279              		.cfi_def_cfa_offset 0
 2280 118c 1EFF2FE1 		bx	lr
 2281              		.cfi_endproc
 2282              	.LFE1:
 2284              		.section	.rodata
 2285              		.align	2
 2286              	.LC0:
 2287 1048 626C6F77 		.ascii	"blowfish.c\000"
 2287      66697368 
 2287      2E6300
 2288 1053 00       		.align	2
 2289              	.LC1:
 2290 1054 2128286C 		.ascii	"!((length) % (8))\000"
 2290      656E6774 
 2290      68292025 
 2290      20283829 
 2290      2900
 2291 1066 0000     		.align	2
 2292              	.LC2:
 2293 1068 00000000 		.word	__stack_chk_guard
 2294              		.text
 2295              		.align	2
 2296              		.global	nettle_blowfish_encrypt
 2297              		.syntax unified
 2298              		.arm
 2299              		.fpu softvfp
 2301              	nettle_blowfish_encrypt:
 2302              	.LFB2:
 329:blowfish.c    **** 
 330:blowfish.c    **** #undef F
 331:blowfish.c    **** #undef R
 332:blowfish.c    **** 
 333:blowfish.c    **** void
 334:blowfish.c    **** blowfish_encrypt (const struct blowfish_ctx *ctx,
 335:blowfish.c    **** 		  size_t length, uint8_t * dst, const uint8_t * src)
 336:blowfish.c    **** {
 2303              		.loc 1 336 1
 2304              		.cfi_startproc
 2305              		@ args = 0, pretend = 0, frame = 32
 2306              		@ frame_needed = 1, uses_anonymous_args = 0
 2307 1190 00482DE9 		push	{fp, lr}
 2308              		.cfi_def_cfa_offset 8
 2309              		.cfi_offset 11, -8
 2310              		.cfi_offset 14, -4
 2311 1194 04B08DE2 		add	fp, sp, #4
 2312              		.cfi_def_cfa 11, 4
 2313 1198 20D04DE2 		sub	sp, sp, #32
 2314 119c 18000BE5 		str	r0, [fp, #-24]
 2315 11a0 1C100BE5 		str	r1, [fp, #-28]
 2316 11a4 20200BE5 		str	r2, [fp, #-32]
 2317 11a8 24300BE5 		str	r3, [fp, #-36]
 2318              		.loc 1 336 1
 2319 11ac E0319FE5 		ldr	r3, .L8
 2320 11b0 003093E5 		ldr	r3, [r3]
 2321 11b4 08300BE5 		str	r3, [fp, #-8]
 2322 11b8 0030A0E3 		mov	r3,#0
 337:blowfish.c    ****   FOR_BLOCKS (length, dst, src, BLOWFISH_BLOCK_SIZE)
 2323              		.loc 1 337 3
 2324 11bc 1C301BE5 		ldr	r3, [fp, #-28]
 2325 11c0 073003E2 		and	r3, r3, #7
 2326 11c4 000053E3 		cmp	r3, #0
 2327 11c8 6400000A 		beq	.L5
 2328              		.loc 1 337 3 is_stmt 0 discriminator 1
 2329 11cc C4319FE5 		ldr	r3, .L8+4
 2330 11d0 C4219FE5 		ldr	r2, .L8+8
 2331 11d4 C4119FE5 		ldr	r1, .L8+12
 2332 11d8 C4019FE5 		ldr	r0, .L8+16
 2333 11dc FEFFFFEB 		bl	__assert_fail
 2334              	.L6:
 2335              	.LBB2:
 338:blowfish.c    ****     {
 339:blowfish.c    ****       uint32_t d1, d2;
 340:blowfish.c    **** 
 341:blowfish.c    ****       d1 = READ_UINT32(src);
 2336              		.loc 1 341 12 is_stmt 1 discriminator 3
 2337 11e0 24301BE5 		ldr	r3, [fp, #-36]
 2338 11e4 0030D3E5 		ldrb	r3, [r3]	@ zero_extendqisi2
 2339 11e8 032CA0E1 		lsl	r2, r3, #24
 2340 11ec 24301BE5 		ldr	r3, [fp, #-36]
 2341 11f0 013083E2 		add	r3, r3, #1
 2342 11f4 0030D3E5 		ldrb	r3, [r3]	@ zero_extendqisi2
 2343 11f8 0338A0E1 		lsl	r3, r3, #16
 2344 11fc 032082E1 		orr	r2, r2, r3
 2345 1200 24301BE5 		ldr	r3, [fp, #-36]
 2346 1204 023083E2 		add	r3, r3, #2
 2347 1208 0030D3E5 		ldrb	r3, [r3]	@ zero_extendqisi2
 2348 120c 0334A0E1 		lsl	r3, r3, #8
 2349 1210 033082E1 		orr	r3, r2, r3
 2350 1214 24201BE5 		ldr	r2, [fp, #-36]
 2351 1218 032082E2 		add	r2, r2, #3
 2352 121c 0020D2E5 		ldrb	r2, [r2]	@ zero_extendqisi2
 2353 1220 023083E1 		orr	r3, r3, r2
 2354              		.loc 1 341 10 discriminator 3
 2355 1224 10300BE5 		str	r3, [fp, #-16]
 342:blowfish.c    ****       d2 = READ_UINT32(src+4);
 2356              		.loc 1 342 12 discriminator 3
 2357 1228 24301BE5 		ldr	r3, [fp, #-36]
 2358 122c 043083E2 		add	r3, r3, #4
 2359 1230 0030D3E5 		ldrb	r3, [r3]	@ zero_extendqisi2
 2360 1234 032CA0E1 		lsl	r2, r3, #24
 2361 1238 24301BE5 		ldr	r3, [fp, #-36]
 2362 123c 053083E2 		add	r3, r3, #5
 2363 1240 0030D3E5 		ldrb	r3, [r3]	@ zero_extendqisi2
 2364 1244 0338A0E1 		lsl	r3, r3, #16
 2365 1248 032082E1 		orr	r2, r2, r3
 2366 124c 24301BE5 		ldr	r3, [fp, #-36]
 2367 1250 063083E2 		add	r3, r3, #6
 2368 1254 0030D3E5 		ldrb	r3, [r3]	@ zero_extendqisi2
 2369 1258 0334A0E1 		lsl	r3, r3, #8
 2370 125c 033082E1 		orr	r3, r2, r3
 2371 1260 24201BE5 		ldr	r2, [fp, #-36]
 2372 1264 072082E2 		add	r2, r2, #7
 2373 1268 0020D2E5 		ldrb	r2, [r2]	@ zero_extendqisi2
 2374 126c 023083E1 		orr	r3, r3, r2
 2375              		.loc 1 342 10 discriminator 3
 2376 1270 0C300BE5 		str	r3, [fp, #-12]
 343:blowfish.c    ****       _nettle_blowfish_encround (ctx, &d1, &d2);
 2377              		.loc 1 343 7 discriminator 3
 2378 1274 0C204BE2 		sub	r2, fp, #12
 2379 1278 10304BE2 		sub	r3, fp, #16
 2380 127c 0310A0E1 		mov	r1, r3
 2381 1280 18001BE5 		ldr	r0, [fp, #-24]
 2382 1284 FEFFFFEB 		bl	_nettle_blowfish_encround
 344:blowfish.c    ****       dst[0] = (d1 >> 24) & 0xff;
 2383              		.loc 1 344 27 discriminator 3
 2384 1288 10301BE5 		ldr	r3, [fp, #-16]
 2385 128c 233CA0E1 		lsr	r3, r3, #24
 2386              		.loc 1 344 14 discriminator 3
 2387 1290 FF2003E2 		and	r2, r3, #255
 2388 1294 20301BE5 		ldr	r3, [fp, #-32]
 2389 1298 0020C3E5 		strb	r2, [r3]
 345:blowfish.c    ****       dst[1] = (d1 >> 16) & 0xff;
 2390              		.loc 1 345 20 discriminator 3
 2391 129c 10301BE5 		ldr	r3, [fp, #-16]
 2392 12a0 2328A0E1 		lsr	r2, r3, #16
 2393              		.loc 1 345 10 discriminator 3
 2394 12a4 20301BE5 		ldr	r3, [fp, #-32]
 2395 12a8 013083E2 		add	r3, r3, #1
 2396              		.loc 1 345 14 discriminator 3
 2397 12ac FF2002E2 		and	r2, r2, #255
 2398 12b0 0020C3E5 		strb	r2, [r3]
 346:blowfish.c    ****       dst[2] = (d1 >> 8) & 0xff;
 2399              		.loc 1 346 20 discriminator 3
 2400 12b4 10301BE5 		ldr	r3, [fp, #-16]
 2401 12b8 2324A0E1 		lsr	r2, r3, #8
 2402              		.loc 1 346 10 discriminator 3
 2403 12bc 20301BE5 		ldr	r3, [fp, #-32]
 2404 12c0 023083E2 		add	r3, r3, #2
 2405              		.loc 1 346 14 discriminator 3
 2406 12c4 FF2002E2 		and	r2, r2, #255
 2407 12c8 0020C3E5 		strb	r2, [r3]
 347:blowfish.c    ****       dst[3] = d1 & 0xff;
 2408              		.loc 1 347 14 discriminator 3
 2409 12cc 10201BE5 		ldr	r2, [fp, #-16]
 2410              		.loc 1 347 10 discriminator 3
 2411 12d0 20301BE5 		ldr	r3, [fp, #-32]
 2412 12d4 033083E2 		add	r3, r3, #3
 2413              		.loc 1 347 14 discriminator 3
 2414 12d8 FF2002E2 		and	r2, r2, #255
 2415 12dc 0020C3E5 		strb	r2, [r3]
 348:blowfish.c    ****       dst[4] = (d2 >> 24) & 0xff;
 2416              		.loc 1 348 27 discriminator 3
 2417 12e0 0C301BE5 		ldr	r3, [fp, #-12]
 2418 12e4 232CA0E1 		lsr	r2, r3, #24
 2419              		.loc 1 348 10 discriminator 3
 2420 12e8 20301BE5 		ldr	r3, [fp, #-32]
 2421 12ec 043083E2 		add	r3, r3, #4
 2422              		.loc 1 348 14 discriminator 3
 2423 12f0 FF2002E2 		and	r2, r2, #255
 2424 12f4 0020C3E5 		strb	r2, [r3]
 349:blowfish.c    ****       dst[5] = (d2 >> 16) & 0xff;
 2425              		.loc 1 349 20 discriminator 3
 2426 12f8 0C301BE5 		ldr	r3, [fp, #-12]
 2427 12fc 2328A0E1 		lsr	r2, r3, #16
 2428              		.loc 1 349 10 discriminator 3
 2429 1300 20301BE5 		ldr	r3, [fp, #-32]
 2430 1304 053083E2 		add	r3, r3, #5
 2431              		.loc 1 349 14 discriminator 3
 2432 1308 FF2002E2 		and	r2, r2, #255
 2433 130c 0020C3E5 		strb	r2, [r3]
 350:blowfish.c    ****       dst[6] = (d2 >> 8) & 0xff;
 2434              		.loc 1 350 20 discriminator 3
 2435 1310 0C301BE5 		ldr	r3, [fp, #-12]
 2436 1314 2324A0E1 		lsr	r2, r3, #8
 2437              		.loc 1 350 10 discriminator 3
 2438 1318 20301BE5 		ldr	r3, [fp, #-32]
 2439 131c 063083E2 		add	r3, r3, #6
 2440              		.loc 1 350 14 discriminator 3
 2441 1320 FF2002E2 		and	r2, r2, #255
 2442 1324 0020C3E5 		strb	r2, [r3]
 351:blowfish.c    ****       dst[7] = d2 & 0xff;
 2443              		.loc 1 351 14 discriminator 3
 2444 1328 0C201BE5 		ldr	r2, [fp, #-12]
 2445              		.loc 1 351 10 discriminator 3
 2446 132c 20301BE5 		ldr	r3, [fp, #-32]
 2447 1330 073083E2 		add	r3, r3, #7
 2448              		.loc 1 351 14 discriminator 3
 2449 1334 FF2002E2 		and	r2, r2, #255
 2450 1338 0020C3E5 		strb	r2, [r3]
 2451              	.LBE2:
 337:blowfish.c    ****     {
 2452              		.loc 1 337 3 discriminator 3
 2453 133c 1C301BE5 		ldr	r3, [fp, #-28]
 2454 1340 083043E2 		sub	r3, r3, #8
 2455 1344 1C300BE5 		str	r3, [fp, #-28]
 2456 1348 20301BE5 		ldr	r3, [fp, #-32]
 2457 134c 083083E2 		add	r3, r3, #8
 2458 1350 20300BE5 		str	r3, [fp, #-32]
 2459 1354 24301BE5 		ldr	r3, [fp, #-36]
 2460 1358 083083E2 		add	r3, r3, #8
 2461 135c 24300BE5 		str	r3, [fp, #-36]
 2462              	.L5:
 337:blowfish.c    ****     {
 2463              		.loc 1 337 3 is_stmt 0 discriminator 2
 2464 1360 1C301BE5 		ldr	r3, [fp, #-28]
 2465 1364 000053E3 		cmp	r3, #0
 2466 1368 9CFFFF1A 		bne	.L6
 352:blowfish.c    ****     }
 353:blowfish.c    **** }
 2467              		.loc 1 353 1 is_stmt 1
 2468 136c 0000A0E1 		nop
 2469 1370 1C309FE5 		ldr	r3, .L8
 2470 1374 002093E5 		ldr	r2, [r3]
 2471 1378 08301BE5 		ldr	r3, [fp, #-8]
 2472 137c 022033E0 		eors	r2, r3, r2
 2473 1380 0030A0E3 		mov	r3, #0
 2474 1384 0000000A 		beq	.L7
 2475 1388 FEFFFFEB 		bl	__stack_chk_fail
 2476              	.L7:
 2477 138c 04D04BE2 		sub	sp, fp, #4
 2478              		.cfi_def_cfa 13, 8
 2479              		@ sp needed
 2480 1390 0088BDE8 		pop	{fp, pc}
 2481              	.L9:
 2482              		.align	2
 2483              	.L8:
 2484 1394 68100000 		.word	.LC2
 2485 1398 74100000 		.word	__PRETTY_FUNCTION__.4428
 2486 139c 51010000 		.word	337
 2487 13a0 48100000 		.word	.LC0
 2488 13a4 54100000 		.word	.LC1
 2489              		.cfi_endproc
 2490              	.LFE2:
 2492              		.section	.rodata
 2493              		.align	2
 2494              	.LC3:
 2495 106c 00000000 		.word	__stack_chk_guard
 2496              		.text
 2497              		.align	2
 2498              		.global	nettle_blowfish_decrypt
 2499              		.syntax unified
 2500              		.arm
 2501              		.fpu softvfp
 2503              	nettle_blowfish_decrypt:
 2504              	.LFB3:
 354:blowfish.c    **** 
 355:blowfish.c    **** void
 356:blowfish.c    **** blowfish_decrypt (const struct blowfish_ctx *ctx,
 357:blowfish.c    **** 		  size_t length, uint8_t * dst, const uint8_t * src)
 358:blowfish.c    **** {
 2505              		.loc 1 358 1
 2506              		.cfi_startproc
 2507              		@ args = 0, pretend = 0, frame = 32
 2508              		@ frame_needed = 1, uses_anonymous_args = 0
 2509 13a8 00482DE9 		push	{fp, lr}
 2510              		.cfi_def_cfa_offset 8
 2511              		.cfi_offset 11, -8
 2512              		.cfi_offset 14, -4
 2513 13ac 04B08DE2 		add	fp, sp, #4
 2514              		.cfi_def_cfa 11, 4
 2515 13b0 20D04DE2 		sub	sp, sp, #32
 2516 13b4 18000BE5 		str	r0, [fp, #-24]
 2517 13b8 1C100BE5 		str	r1, [fp, #-28]
 2518 13bc 20200BE5 		str	r2, [fp, #-32]
 2519 13c0 24300BE5 		str	r3, [fp, #-36]
 2520              		.loc 1 358 1
 2521 13c4 E0319FE5 		ldr	r3, .L15
 2522 13c8 003093E5 		ldr	r3, [r3]
 2523 13cc 08300BE5 		str	r3, [fp, #-8]
 2524 13d0 0030A0E3 		mov	r3,#0
 359:blowfish.c    ****   FOR_BLOCKS (length, dst, src, BLOWFISH_BLOCK_SIZE)
 2525              		.loc 1 359 3
 2526 13d4 1C301BE5 		ldr	r3, [fp, #-28]
 2527 13d8 073003E2 		and	r3, r3, #7
 2528 13dc 000053E3 		cmp	r3, #0
 2529 13e0 6400000A 		beq	.L12
 2530              		.loc 1 359 3 is_stmt 0 discriminator 1
 2531 13e4 C4319FE5 		ldr	r3, .L15+4
 2532 13e8 C4219FE5 		ldr	r2, .L15+8
 2533 13ec C4119FE5 		ldr	r1, .L15+12
 2534 13f0 C4019FE5 		ldr	r0, .L15+16
 2535 13f4 FEFFFFEB 		bl	__assert_fail
 2536              	.L13:
 2537              	.LBB3:
 360:blowfish.c    ****     {
 361:blowfish.c    ****       uint32_t d1, d2;
 362:blowfish.c    **** 
 363:blowfish.c    ****       d1 = READ_UINT32(src);
 2538              		.loc 1 363 12 is_stmt 1 discriminator 3
 2539 13f8 24301BE5 		ldr	r3, [fp, #-36]
 2540 13fc 0030D3E5 		ldrb	r3, [r3]	@ zero_extendqisi2
 2541 1400 032CA0E1 		lsl	r2, r3, #24
 2542 1404 24301BE5 		ldr	r3, [fp, #-36]
 2543 1408 013083E2 		add	r3, r3, #1
 2544 140c 0030D3E5 		ldrb	r3, [r3]	@ zero_extendqisi2
 2545 1410 0338A0E1 		lsl	r3, r3, #16
 2546 1414 032082E1 		orr	r2, r2, r3
 2547 1418 24301BE5 		ldr	r3, [fp, #-36]
 2548 141c 023083E2 		add	r3, r3, #2
 2549 1420 0030D3E5 		ldrb	r3, [r3]	@ zero_extendqisi2
 2550 1424 0334A0E1 		lsl	r3, r3, #8
 2551 1428 033082E1 		orr	r3, r2, r3
 2552 142c 24201BE5 		ldr	r2, [fp, #-36]
 2553 1430 032082E2 		add	r2, r2, #3
 2554 1434 0020D2E5 		ldrb	r2, [r2]	@ zero_extendqisi2
 2555 1438 023083E1 		orr	r3, r3, r2
 2556              		.loc 1 363 10 discriminator 3
 2557 143c 10300BE5 		str	r3, [fp, #-16]
 364:blowfish.c    ****       d2 = READ_UINT32(src+4);
 2558              		.loc 1 364 12 discriminator 3
 2559 1440 24301BE5 		ldr	r3, [fp, #-36]
 2560 1444 043083E2 		add	r3, r3, #4
 2561 1448 0030D3E5 		ldrb	r3, [r3]	@ zero_extendqisi2
 2562 144c 032CA0E1 		lsl	r2, r3, #24
 2563 1450 24301BE5 		ldr	r3, [fp, #-36]
 2564 1454 053083E2 		add	r3, r3, #5
 2565 1458 0030D3E5 		ldrb	r3, [r3]	@ zero_extendqisi2
 2566 145c 0338A0E1 		lsl	r3, r3, #16
 2567 1460 032082E1 		orr	r2, r2, r3
 2568 1464 24301BE5 		ldr	r3, [fp, #-36]
 2569 1468 063083E2 		add	r3, r3, #6
 2570 146c 0030D3E5 		ldrb	r3, [r3]	@ zero_extendqisi2
 2571 1470 0334A0E1 		lsl	r3, r3, #8
 2572 1474 033082E1 		orr	r3, r2, r3
 2573 1478 24201BE5 		ldr	r2, [fp, #-36]
 2574 147c 072082E2 		add	r2, r2, #7
 2575 1480 0020D2E5 		ldrb	r2, [r2]	@ zero_extendqisi2
 2576 1484 023083E1 		orr	r3, r3, r2
 2577              		.loc 1 364 10 discriminator 3
 2578 1488 0C300BE5 		str	r3, [fp, #-12]
 365:blowfish.c    ****       decround (ctx, &d1, &d2);
 2579              		.loc 1 365 7 discriminator 3
 2580 148c 0C204BE2 		sub	r2, fp, #12
 2581 1490 10304BE2 		sub	r3, fp, #16
 2582 1494 0310A0E1 		mov	r1, r3
 2583 1498 18001BE5 		ldr	r0, [fp, #-24]
 2584 149c 09FDFFEB 		bl	decround
 366:blowfish.c    ****       dst[0] = (d1 >> 24) & 0xff;
 2585              		.loc 1 366 27 discriminator 3
 2586 14a0 10301BE5 		ldr	r3, [fp, #-16]
 2587 14a4 233CA0E1 		lsr	r3, r3, #24
 2588              		.loc 1 366 14 discriminator 3
 2589 14a8 FF2003E2 		and	r2, r3, #255
 2590 14ac 20301BE5 		ldr	r3, [fp, #-32]
 2591 14b0 0020C3E5 		strb	r2, [r3]
 367:blowfish.c    ****       dst[1] = (d1 >> 16) & 0xff;
 2592              		.loc 1 367 20 discriminator 3
 2593 14b4 10301BE5 		ldr	r3, [fp, #-16]
 2594 14b8 2328A0E1 		lsr	r2, r3, #16
 2595              		.loc 1 367 10 discriminator 3
 2596 14bc 20301BE5 		ldr	r3, [fp, #-32]
 2597 14c0 013083E2 		add	r3, r3, #1
 2598              		.loc 1 367 14 discriminator 3
 2599 14c4 FF2002E2 		and	r2, r2, #255
 2600 14c8 0020C3E5 		strb	r2, [r3]
 368:blowfish.c    ****       dst[2] = (d1 >> 8) & 0xff;
 2601              		.loc 1 368 20 discriminator 3
 2602 14cc 10301BE5 		ldr	r3, [fp, #-16]
 2603 14d0 2324A0E1 		lsr	r2, r3, #8
 2604              		.loc 1 368 10 discriminator 3
 2605 14d4 20301BE5 		ldr	r3, [fp, #-32]
 2606 14d8 023083E2 		add	r3, r3, #2
 2607              		.loc 1 368 14 discriminator 3
 2608 14dc FF2002E2 		and	r2, r2, #255
 2609 14e0 0020C3E5 		strb	r2, [r3]
 369:blowfish.c    ****       dst[3] = d1 & 0xff;
 2610              		.loc 1 369 14 discriminator 3
 2611 14e4 10201BE5 		ldr	r2, [fp, #-16]
 2612              		.loc 1 369 10 discriminator 3
 2613 14e8 20301BE5 		ldr	r3, [fp, #-32]
 2614 14ec 033083E2 		add	r3, r3, #3
 2615              		.loc 1 369 14 discriminator 3
 2616 14f0 FF2002E2 		and	r2, r2, #255
 2617 14f4 0020C3E5 		strb	r2, [r3]
 370:blowfish.c    ****       dst[4] = (d2 >> 24) & 0xff;
 2618              		.loc 1 370 27 discriminator 3
 2619 14f8 0C301BE5 		ldr	r3, [fp, #-12]
 2620 14fc 232CA0E1 		lsr	r2, r3, #24
 2621              		.loc 1 370 10 discriminator 3
 2622 1500 20301BE5 		ldr	r3, [fp, #-32]
 2623 1504 043083E2 		add	r3, r3, #4
 2624              		.loc 1 370 14 discriminator 3
 2625 1508 FF2002E2 		and	r2, r2, #255
 2626 150c 0020C3E5 		strb	r2, [r3]
 371:blowfish.c    ****       dst[5] = (d2 >> 16) & 0xff;
 2627              		.loc 1 371 20 discriminator 3
 2628 1510 0C301BE5 		ldr	r3, [fp, #-12]
 2629 1514 2328A0E1 		lsr	r2, r3, #16
 2630              		.loc 1 371 10 discriminator 3
 2631 1518 20301BE5 		ldr	r3, [fp, #-32]
 2632 151c 053083E2 		add	r3, r3, #5
 2633              		.loc 1 371 14 discriminator 3
 2634 1520 FF2002E2 		and	r2, r2, #255
 2635 1524 0020C3E5 		strb	r2, [r3]
 372:blowfish.c    ****       dst[6] = (d2 >> 8) & 0xff;
 2636              		.loc 1 372 20 discriminator 3
 2637 1528 0C301BE5 		ldr	r3, [fp, #-12]
 2638 152c 2324A0E1 		lsr	r2, r3, #8
 2639              		.loc 1 372 10 discriminator 3
 2640 1530 20301BE5 		ldr	r3, [fp, #-32]
 2641 1534 063083E2 		add	r3, r3, #6
 2642              		.loc 1 372 14 discriminator 3
 2643 1538 FF2002E2 		and	r2, r2, #255
 2644 153c 0020C3E5 		strb	r2, [r3]
 373:blowfish.c    ****       dst[7] = d2 & 0xff;
 2645              		.loc 1 373 14 discriminator 3
 2646 1540 0C201BE5 		ldr	r2, [fp, #-12]
 2647              		.loc 1 373 10 discriminator 3
 2648 1544 20301BE5 		ldr	r3, [fp, #-32]
 2649 1548 073083E2 		add	r3, r3, #7
 2650              		.loc 1 373 14 discriminator 3
 2651 154c FF2002E2 		and	r2, r2, #255
 2652 1550 0020C3E5 		strb	r2, [r3]
 2653              	.LBE3:
 359:blowfish.c    ****     {
 2654              		.loc 1 359 3 discriminator 3
 2655 1554 1C301BE5 		ldr	r3, [fp, #-28]
 2656 1558 083043E2 		sub	r3, r3, #8
 2657 155c 1C300BE5 		str	r3, [fp, #-28]
 2658 1560 20301BE5 		ldr	r3, [fp, #-32]
 2659 1564 083083E2 		add	r3, r3, #8
 2660 1568 20300BE5 		str	r3, [fp, #-32]
 2661 156c 24301BE5 		ldr	r3, [fp, #-36]
 2662 1570 083083E2 		add	r3, r3, #8
 2663 1574 24300BE5 		str	r3, [fp, #-36]
 2664              	.L12:
 359:blowfish.c    ****     {
 2665              		.loc 1 359 3 is_stmt 0 discriminator 2
 2666 1578 1C301BE5 		ldr	r3, [fp, #-28]
 2667 157c 000053E3 		cmp	r3, #0
 2668 1580 9CFFFF1A 		bne	.L13
 374:blowfish.c    ****     }
 375:blowfish.c    **** }
 2669              		.loc 1 375 1 is_stmt 1
 2670 1584 0000A0E1 		nop
 2671 1588 1C309FE5 		ldr	r3, .L15
 2672 158c 002093E5 		ldr	r2, [r3]
 2673 1590 08301BE5 		ldr	r3, [fp, #-8]
 2674 1594 022033E0 		eors	r2, r3, r2
 2675 1598 0030A0E3 		mov	r3, #0
 2676 159c 0000000A 		beq	.L14
 2677 15a0 FEFFFFEB 		bl	__stack_chk_fail
 2678              	.L14:
 2679 15a4 04D04BE2 		sub	sp, fp, #4
 2680              		.cfi_def_cfa 13, 8
 2681              		@ sp needed
 2682 15a8 0088BDE8 		pop	{fp, pc}
 2683              	.L16:
 2684              		.align	2
 2685              	.L15:
 2686 15ac 6C100000 		.word	.LC3
 2687 15b0 8C100000 		.word	__PRETTY_FUNCTION__.4440
 2688 15b4 67010000 		.word	359
 2689 15b8 48100000 		.word	.LC0
 2690 15bc 54100000 		.word	.LC1
 2691              		.cfi_endproc
 2692              	.LFE3:
 2694              		.global	__aeabi_uidivmod
 2695              		.section	.rodata
 2696              		.align	2
 2697              	.LC4:
 2698 1070 00000000 		.word	__stack_chk_guard
 2699              		.text
 2700              		.align	2
 2701              		.global	nettle_blowfish_set_key
 2702              		.syntax unified
 2703              		.arm
 2704              		.fpu softvfp
 2706              	nettle_blowfish_set_key:
 2707              	.LFB4:
 376:blowfish.c    **** 
 377:blowfish.c    **** int
 378:blowfish.c    **** blowfish_set_key (struct blowfish_ctx *ctx,
 379:blowfish.c    **** 		  size_t length, const uint8_t * key)
 380:blowfish.c    **** {
 2708              		.loc 1 380 1
 2709              		.cfi_startproc
 2710              		@ args = 0, pretend = 0, frame = 40
 2711              		@ frame_needed = 1, uses_anonymous_args = 0
 2712 15c0 10482DE9 		push	{r4, fp, lr}
 2713              		.cfi_def_cfa_offset 12
 2714              		.cfi_offset 4, -12
 2715              		.cfi_offset 11, -8
 2716              		.cfi_offset 14, -4
 2717 15c4 08B08DE2 		add	fp, sp, #8
 2718              		.cfi_def_cfa 11, 4
 2719 15c8 2CD04DE2 		sub	sp, sp, #44
 2720 15cc 28000BE5 		str	r0, [fp, #-40]
 2721 15d0 2C100BE5 		str	r1, [fp, #-44]
 2722 15d4 30200BE5 		str	r2, [fp, #-48]
 2723              		.loc 1 380 1
 2724 15d8 5C339FE5 		ldr	r3, .L35
 2725 15dc 003093E5 		ldr	r3, [r3]
 2726 15e0 10300BE5 		str	r3, [fp, #-16]
 2727 15e4 0030A0E3 		mov	r3,#0
 381:blowfish.c    ****   int i, j;
 382:blowfish.c    ****   uint32_t data, datal, datar;
 383:blowfish.c    **** 
 384:blowfish.c    ****   *ctx = _nettle_blowfish_initial_ctx;
 2728              		.loc 1 384 8
 2729 15e8 28301BE5 		ldr	r3, [fp, #-40]
 2730 15ec 4C239FE5 		ldr	r2, .L35+4
 2731 15f0 0300A0E1 		mov	r0, r3
 2732 15f4 0210A0E1 		mov	r1, r2
 2733 15f8 44339FE5 		ldr	r3, .L35+8
 2734 15fc 0320A0E1 		mov	r2, r3
 2735 1600 FEFFFFEB 		bl	memcpy
 385:blowfish.c    **** 
 386:blowfish.c    ****   for (i = j = 0; i < _BLOWFISH_ROUNDS + 2; i++)
 2736              		.loc 1 386 14
 2737 1604 0030A0E3 		mov	r3, #0
 2738 1608 18300BE5 		str	r3, [fp, #-24]
 2739              		.loc 1 386 10
 2740 160c 18301BE5 		ldr	r3, [fp, #-24]
 2741 1610 1C300BE5 		str	r3, [fp, #-28]
 2742              		.loc 1 386 3
 2743 1614 3C0000EA 		b	.L18
 2744              	.L19:
 387:blowfish.c    ****     {
 388:blowfish.c    ****       data = ((uint32_t) key[j] << 24)
 2745              		.loc 1 388 29 discriminator 3
 2746 1618 18301BE5 		ldr	r3, [fp, #-24]
 2747 161c 30201BE5 		ldr	r2, [fp, #-48]
 2748 1620 033082E0 		add	r3, r2, r3
 2749 1624 0030D3E5 		ldrb	r3, [r3]	@ zero_extendqisi2
 2750              		.loc 1 388 33 discriminator 3
 2751 1628 034CA0E1 		lsl	r4, r3, #24
 389:blowfish.c    **** 	| ((uint32_t) key[(j+1) % length] << 16)
 2752              		.loc 1 389 22 discriminator 3
 2753 162c 18301BE5 		ldr	r3, [fp, #-24]
 2754 1630 013083E2 		add	r3, r3, #1
 2755              		.loc 1 389 26 discriminator 3
 2756 1634 2C101BE5 		ldr	r1, [fp, #-44]
 2757 1638 0300A0E1 		mov	r0, r3
 2758 163c FEFFFFEB 		bl	__aeabi_uidivmod
 2759              	.LVL0:
 2760 1640 0130A0E1 		mov	r3, r1
 2761 1644 0320A0E1 		mov	r2, r3
 2762              		.loc 1 389 19 discriminator 3
 2763 1648 30301BE5 		ldr	r3, [fp, #-48]
 2764 164c 023083E0 		add	r3, r3, r2
 2765 1650 0030D3E5 		ldrb	r3, [r3]	@ zero_extendqisi2
 2766              		.loc 1 389 36 discriminator 3
 2767 1654 0338A0E1 		lsl	r3, r3, #16
 2768              		.loc 1 389 2 discriminator 3
 2769 1658 034084E1 		orr	r4, r4, r3
 390:blowfish.c    **** 	| ((uint32_t) key[(j+2) % length] << 8)
 2770              		.loc 1 390 22 discriminator 3
 2771 165c 18301BE5 		ldr	r3, [fp, #-24]
 2772 1660 023083E2 		add	r3, r3, #2
 2773              		.loc 1 390 26 discriminator 3
 2774 1664 2C101BE5 		ldr	r1, [fp, #-44]
 2775 1668 0300A0E1 		mov	r0, r3
 2776 166c FEFFFFEB 		bl	__aeabi_uidivmod
 2777              	.LVL1:
 2778 1670 0130A0E1 		mov	r3, r1
 2779 1674 0320A0E1 		mov	r2, r3
 2780              		.loc 1 390 19 discriminator 3
 2781 1678 30301BE5 		ldr	r3, [fp, #-48]
 2782 167c 023083E0 		add	r3, r3, r2
 2783 1680 0030D3E5 		ldrb	r3, [r3]	@ zero_extendqisi2
 2784              		.loc 1 390 36 discriminator 3
 2785 1684 0334A0E1 		lsl	r3, r3, #8
 2786              		.loc 1 390 2 discriminator 3
 2787 1688 034084E1 		orr	r4, r4, r3
 391:blowfish.c    **** 	| (uint32_t) key[(j+3) % length];
 2788              		.loc 1 391 21 discriminator 3
 2789 168c 18301BE5 		ldr	r3, [fp, #-24]
 2790 1690 033083E2 		add	r3, r3, #3
 2791              		.loc 1 391 25 discriminator 3
 2792 1694 2C101BE5 		ldr	r1, [fp, #-44]
 2793 1698 0300A0E1 		mov	r0, r3
 2794 169c FEFFFFEB 		bl	__aeabi_uidivmod
 2795              	.LVL2:
 2796 16a0 0130A0E1 		mov	r3, r1
 2797 16a4 0320A0E1 		mov	r2, r3
 2798              		.loc 1 391 18 discriminator 3
 2799 16a8 30301BE5 		ldr	r3, [fp, #-48]
 2800 16ac 023083E0 		add	r3, r3, r2
 2801 16b0 0030D3E5 		ldrb	r3, [r3]	@ zero_extendqisi2
 388:blowfish.c    **** 	| ((uint32_t) key[(j+1) % length] << 16)
 2802              		.loc 1 388 12 discriminator 3
 2803 16b4 033084E1 		orr	r3, r4, r3
 2804 16b8 14300BE5 		str	r3, [fp, #-20]
 392:blowfish.c    ****       ctx->p[i] ^= data;
 2805              		.loc 1 392 17 discriminator 3
 2806 16bc 28301BE5 		ldr	r3, [fp, #-40]
 2807 16c0 1C201BE5 		ldr	r2, [fp, #-28]
 2808 16c4 012B82E2 		add	r2, r2, #1024
 2809 16c8 022193E7 		ldr	r2, [r3, r2, lsl #2]
 2810 16cc 14301BE5 		ldr	r3, [fp, #-20]
 2811 16d0 031022E0 		eor	r1, r2, r3
 2812 16d4 28301BE5 		ldr	r3, [fp, #-40]
 2813 16d8 1C201BE5 		ldr	r2, [fp, #-28]
 2814 16dc 012B82E2 		add	r2, r2, #1024
 2815 16e0 021183E7 		str	r1, [r3, r2, lsl #2]
 393:blowfish.c    ****       j = (j + 4) % length;
 2816              		.loc 1 393 14 discriminator 3
 2817 16e4 18301BE5 		ldr	r3, [fp, #-24]
 2818 16e8 043083E2 		add	r3, r3, #4
 2819              		.loc 1 393 19 discriminator 3
 2820 16ec 2C101BE5 		ldr	r1, [fp, #-44]
 2821 16f0 0300A0E1 		mov	r0, r3
 2822 16f4 FEFFFFEB 		bl	__aeabi_uidivmod
 2823              	.LVL3:
 2824 16f8 0130A0E1 		mov	r3, r1
 2825              		.loc 1 393 9 discriminator 3
 2826 16fc 18300BE5 		str	r3, [fp, #-24]
 386:blowfish.c    ****     {
 2827              		.loc 1 386 46 discriminator 3
 2828 1700 1C301BE5 		ldr	r3, [fp, #-28]
 2829 1704 013083E2 		add	r3, r3, #1
 2830 1708 1C300BE5 		str	r3, [fp, #-28]
 2831              	.L18:
 386:blowfish.c    ****     {
 2832              		.loc 1 386 3 discriminator 1
 2833 170c 1C301BE5 		ldr	r3, [fp, #-28]
 2834 1710 110053E3 		cmp	r3, #17
 2835 1714 BFFFFFDA 		ble	.L19
 394:blowfish.c    ****     }
 395:blowfish.c    **** 
 396:blowfish.c    ****   datal = datar = 0;
 2836              		.loc 1 396 17
 2837 1718 0030A0E3 		mov	r3, #0
 2838 171c 20300BE5 		str	r3, [fp, #-32]
 2839              		.loc 1 396 9
 2840 1720 20301BE5 		ldr	r3, [fp, #-32]
 2841 1724 24300BE5 		str	r3, [fp, #-36]
 397:blowfish.c    ****   for (i = 0; i < _BLOWFISH_ROUNDS + 2; i += 2)
 2842              		.loc 1 397 10
 2843 1728 0030A0E3 		mov	r3, #0
 2844 172c 1C300BE5 		str	r3, [fp, #-28]
 2845              		.loc 1 397 3
 2846 1730 120000EA 		b	.L20
 2847              	.L21:
 398:blowfish.c    ****     {
 399:blowfish.c    ****       _nettle_blowfish_encround (ctx, &datal, &datar);
 2848              		.loc 1 399 7 discriminator 3
 2849 1734 20204BE2 		sub	r2, fp, #32
 2850 1738 24304BE2 		sub	r3, fp, #36
 2851 173c 0310A0E1 		mov	r1, r3
 2852 1740 28001BE5 		ldr	r0, [fp, #-40]
 2853 1744 FEFFFFEB 		bl	_nettle_blowfish_encround
 400:blowfish.c    ****       ctx->p[i] = datal;
 2854              		.loc 1 400 17 discriminator 3
 2855 1748 24101BE5 		ldr	r1, [fp, #-36]
 2856 174c 28301BE5 		ldr	r3, [fp, #-40]
 2857 1750 1C201BE5 		ldr	r2, [fp, #-28]
 2858 1754 012B82E2 		add	r2, r2, #1024
 2859 1758 021183E7 		str	r1, [r3, r2, lsl #2]
 401:blowfish.c    ****       ctx->p[i + 1] = datar;
 2860              		.loc 1 401 16 discriminator 3
 2861 175c 1C301BE5 		ldr	r3, [fp, #-28]
 2862 1760 012083E2 		add	r2, r3, #1
 2863              		.loc 1 401 21 discriminator 3
 2864 1764 20101BE5 		ldr	r1, [fp, #-32]
 2865 1768 28301BE5 		ldr	r3, [fp, #-40]
 2866 176c 012B82E2 		add	r2, r2, #1024
 2867 1770 021183E7 		str	r1, [r3, r2, lsl #2]
 397:blowfish.c    ****     {
 2868              		.loc 1 397 43 discriminator 3
 2869 1774 1C301BE5 		ldr	r3, [fp, #-28]
 2870 1778 023083E2 		add	r3, r3, #2
 2871 177c 1C300BE5 		str	r3, [fp, #-28]
 2872              	.L20:
 397:blowfish.c    ****     {
 2873              		.loc 1 397 3 discriminator 1
 2874 1780 1C301BE5 		ldr	r3, [fp, #-28]
 2875 1784 110053E3 		cmp	r3, #17
 2876 1788 E9FFFFDA 		ble	.L21
 402:blowfish.c    ****     }
 403:blowfish.c    **** 
 404:blowfish.c    ****   for (j = 0; j < 4; j++)
 2877              		.loc 1 404 10
 2878 178c 0030A0E3 		mov	r3, #0
 2879 1790 18300BE5 		str	r3, [fp, #-24]
 2880              		.loc 1 404 3
 2881 1794 1F0000EA 		b	.L22
 2882              	.L25:
 405:blowfish.c    ****     for (i = 0; i < 256; i += 2)
 2883              		.loc 1 405 12
 2884 1798 0030A0E3 		mov	r3, #0
 2885 179c 1C300BE5 		str	r3, [fp, #-28]
 2886              		.loc 1 405 5
 2887 17a0 160000EA 		b	.L23
 2888              	.L24:
 406:blowfish.c    ****       {
 407:blowfish.c    **** 	_nettle_blowfish_encround (ctx, &datal, &datar);
 2889              		.loc 1 407 2 discriminator 3
 2890 17a4 20204BE2 		sub	r2, fp, #32
 2891 17a8 24304BE2 		sub	r3, fp, #36
 2892 17ac 0310A0E1 		mov	r1, r3
 2893 17b0 28001BE5 		ldr	r0, [fp, #-40]
 2894 17b4 FEFFFFEB 		bl	_nettle_blowfish_encround
 408:blowfish.c    **** 	ctx->s[j][i] = datal;
 2895              		.loc 1 408 15 discriminator 3
 2896 17b8 24101BE5 		ldr	r1, [fp, #-36]
 2897 17bc 28301BE5 		ldr	r3, [fp, #-40]
 2898 17c0 18201BE5 		ldr	r2, [fp, #-24]
 2899 17c4 0204A0E1 		lsl	r0, r2, #8
 2900 17c8 1C201BE5 		ldr	r2, [fp, #-28]
 2901 17cc 022080E0 		add	r2, r0, r2
 2902 17d0 021183E7 		str	r1, [r3, r2, lsl #2]
 409:blowfish.c    **** 	ctx->s[j][i + 1] = datar;
 2903              		.loc 1 409 14 discriminator 3
 2904 17d4 1C301BE5 		ldr	r3, [fp, #-28]
 2905 17d8 012083E2 		add	r2, r3, #1
 2906              		.loc 1 409 19 discriminator 3
 2907 17dc 20101BE5 		ldr	r1, [fp, #-32]
 2908 17e0 28301BE5 		ldr	r3, [fp, #-40]
 2909 17e4 18001BE5 		ldr	r0, [fp, #-24]
 2910 17e8 0004A0E1 		lsl	r0, r0, #8
 2911 17ec 022080E0 		add	r2, r0, r2
 2912 17f0 021183E7 		str	r1, [r3, r2, lsl #2]
 405:blowfish.c    ****       {
 2913              		.loc 1 405 28 discriminator 3
 2914 17f4 1C301BE5 		ldr	r3, [fp, #-28]
 2915 17f8 023083E2 		add	r3, r3, #2
 2916 17fc 1C300BE5 		str	r3, [fp, #-28]
 2917              	.L23:
 405:blowfish.c    ****       {
 2918              		.loc 1 405 5 discriminator 1
 2919 1800 1C301BE5 		ldr	r3, [fp, #-28]
 2920 1804 FF0053E3 		cmp	r3, #255
 2921 1808 E5FFFFDA 		ble	.L24
 404:blowfish.c    ****     for (i = 0; i < 256; i += 2)
 2922              		.loc 1 404 23 discriminator 2
 2923 180c 18301BE5 		ldr	r3, [fp, #-24]
 2924 1810 013083E2 		add	r3, r3, #1
 2925 1814 18300BE5 		str	r3, [fp, #-24]
 2926              	.L22:
 404:blowfish.c    ****     for (i = 0; i < 256; i += 2)
 2927              		.loc 1 404 3 discriminator 1
 2928 1818 18301BE5 		ldr	r3, [fp, #-24]
 2929 181c 030053E3 		cmp	r3, #3
 2930 1820 DCFFFFDA 		ble	.L25
 410:blowfish.c    ****     }
 411:blowfish.c    **** 
 412:blowfish.c    ****   /* Check for weak key.  A weak key is a key in which a value in
 413:blowfish.c    ****      the P-array (here c) occurs more than once per table.  */
 414:blowfish.c    ****   for (i = 0; i < 255; i++)
 2931              		.loc 1 414 10
 2932 1824 0030A0E3 		mov	r3, #0
 2933 1828 1C300BE5 		str	r3, [fp, #-28]
 2934              		.loc 1 414 3
 2935 182c 340000EA 		b	.L26
 2936              	.L32:
 415:blowfish.c    ****     {
 416:blowfish.c    ****       for (j = i + 1; j < 256; j++)
 2937              		.loc 1 416 14
 2938 1830 1C301BE5 		ldr	r3, [fp, #-28]
 2939 1834 013083E2 		add	r3, r3, #1
 2940 1838 18300BE5 		str	r3, [fp, #-24]
 2941              		.loc 1 416 7
 2942 183c 2A0000EA 		b	.L27
 2943              	.L31:
 417:blowfish.c    **** 	{
 418:blowfish.c    **** 	  if ((ctx->s[0][i] == ctx->s[0][j])
 2944              		.loc 1 418 18
 2945 1840 28301BE5 		ldr	r3, [fp, #-40]
 2946 1844 1C201BE5 		ldr	r2, [fp, #-28]
 2947 1848 022193E7 		ldr	r2, [r3, r2, lsl #2]
 2948              		.loc 1 418 34
 2949 184c 28301BE5 		ldr	r3, [fp, #-40]
 2950 1850 18101BE5 		ldr	r1, [fp, #-24]
 2951 1854 013193E7 		ldr	r3, [r3, r1, lsl #2]
 2952              		.loc 1 418 7
 2953 1858 030052E1 		cmp	r2, r3
 2954 185c 1D00000A 		beq	.L28
 419:blowfish.c    **** 	      || (ctx->s[1][i] == ctx->s[1][j])
 2955              		.loc 1 419 21
 2956 1860 28301BE5 		ldr	r3, [fp, #-40]
 2957 1864 1C201BE5 		ldr	r2, [fp, #-28]
 2958 1868 012C82E2 		add	r2, r2, #256
 2959 186c 022193E7 		ldr	r2, [r3, r2, lsl #2]
 2960              		.loc 1 419 37
 2961 1870 28301BE5 		ldr	r3, [fp, #-40]
 2962 1874 18101BE5 		ldr	r1, [fp, #-24]
 2963 1878 011C81E2 		add	r1, r1, #256
 2964 187c 013193E7 		ldr	r3, [r3, r1, lsl #2]
 2965              		.loc 1 419 8
 2966 1880 030052E1 		cmp	r2, r3
 2967 1884 1300000A 		beq	.L28
 420:blowfish.c    **** 	      || (ctx->s[2][i] == ctx->s[2][j])
 2968              		.loc 1 420 21
 2969 1888 28301BE5 		ldr	r3, [fp, #-40]
 2970 188c 1C201BE5 		ldr	r2, [fp, #-28]
 2971 1890 022C82E2 		add	r2, r2, #512
 2972 1894 022193E7 		ldr	r2, [r3, r2, lsl #2]
 2973              		.loc 1 420 37
 2974 1898 28301BE5 		ldr	r3, [fp, #-40]
 2975 189c 18101BE5 		ldr	r1, [fp, #-24]
 2976 18a0 021C81E2 		add	r1, r1, #512
 2977 18a4 013193E7 		ldr	r3, [r3, r1, lsl #2]
 2978              		.loc 1 420 8
 2979 18a8 030052E1 		cmp	r2, r3
 2980 18ac 0900000A 		beq	.L28
 421:blowfish.c    **** 	      || (ctx->s[3][i] == ctx->s[3][j]))
 2981              		.loc 1 421 21
 2982 18b0 28301BE5 		ldr	r3, [fp, #-40]
 2983 18b4 1C201BE5 		ldr	r2, [fp, #-28]
 2984 18b8 032C82E2 		add	r2, r2, #768
 2985 18bc 022193E7 		ldr	r2, [r3, r2, lsl #2]
 2986              		.loc 1 421 37
 2987 18c0 28301BE5 		ldr	r3, [fp, #-40]
 2988 18c4 18101BE5 		ldr	r1, [fp, #-24]
 2989 18c8 031C81E2 		add	r1, r1, #768
 2990 18cc 013193E7 		ldr	r3, [r3, r1, lsl #2]
 2991              		.loc 1 421 8
 2992 18d0 030052E1 		cmp	r2, r3
 2993 18d4 0100001A 		bne	.L29
 2994              	.L28:
 422:blowfish.c    **** 	    return 0;
 2995              		.loc 1 422 13
 2996 18d8 0030A0E3 		mov	r3, #0
 2997 18dc 0C0000EA 		b	.L33
 2998              	.L29:
 416:blowfish.c    **** 	{
 2999              		.loc 1 416 33 discriminator 2
 3000 18e0 18301BE5 		ldr	r3, [fp, #-24]
 3001 18e4 013083E2 		add	r3, r3, #1
 3002 18e8 18300BE5 		str	r3, [fp, #-24]
 3003              	.L27:
 416:blowfish.c    **** 	{
 3004              		.loc 1 416 7 discriminator 1
 3005 18ec 18301BE5 		ldr	r3, [fp, #-24]
 3006 18f0 FF0053E3 		cmp	r3, #255
 3007 18f4 D1FFFFDA 		ble	.L31
 414:blowfish.c    ****     {
 3008              		.loc 1 414 25 discriminator 2
 3009 18f8 1C301BE5 		ldr	r3, [fp, #-28]
 3010 18fc 013083E2 		add	r3, r3, #1
 3011 1900 1C300BE5 		str	r3, [fp, #-28]
 3012              	.L26:
 414:blowfish.c    ****     {
 3013              		.loc 1 414 3 discriminator 1
 3014 1904 1C301BE5 		ldr	r3, [fp, #-28]
 3015 1908 FE0053E3 		cmp	r3, #254
 3016 190c C7FFFFDA 		ble	.L32
 423:blowfish.c    **** 	}
 424:blowfish.c    ****     }
 425:blowfish.c    **** 
 426:blowfish.c    ****   return 1;
 3017              		.loc 1 426 10
 3018 1910 0130A0E3 		mov	r3, #1
 3019              	.L33:
 427:blowfish.c    **** }
 3020              		.loc 1 427 1 discriminator 1
 3021 1914 20209FE5 		ldr	r2, .L35
 3022 1918 001092E5 		ldr	r1, [r2]
 3023 191c 10201BE5 		ldr	r2, [fp, #-16]
 3024 1920 011032E0 		eors	r1, r2, r1
 3025 1924 0020A0E3 		mov	r2, #0
 3026 1928 0000000A 		beq	.L34
 3027              		.loc 1 427 1 is_stmt 0
 3028 192c FEFFFFEB 		bl	__stack_chk_fail
 3029              	.L34:
 3030 1930 0300A0E1 		mov	r0, r3
 3031 1934 08D04BE2 		sub	sp, fp, #8
 3032              		.cfi_def_cfa 13, 12
 3033              		@ sp needed
 3034 1938 1088BDE8 		pop	{r4, fp, pc}
 3035              	.L36:
 3036              		.align	2
 3037              	.L35:
 3038 193c 70100000 		.word	.LC4
 3039 1940 00000000 		.word	_nettle_blowfish_initial_ctx
 3040 1944 48100000 		.word	4168
 3041              		.cfi_endproc
 3042              	.LFE4:
 3044              		.align	2
 3045              		.global	nettle_blowfish128_set_key
 3046              		.syntax unified
 3047              		.arm
 3048              		.fpu softvfp
 3050              	nettle_blowfish128_set_key:
 3051              	.LFB5:
 428:blowfish.c    **** 
 429:blowfish.c    **** int
 430:blowfish.c    **** blowfish128_set_key(struct blowfish_ctx *ctx, const uint8_t *key)
 431:blowfish.c    **** {
 3052              		.loc 1 431 1 is_stmt 1
 3053              		.cfi_startproc
 3054              		@ args = 0, pretend = 0, frame = 8
 3055              		@ frame_needed = 1, uses_anonymous_args = 0
 3056 1948 00482DE9 		push	{fp, lr}
 3057              		.cfi_def_cfa_offset 8
 3058              		.cfi_offset 11, -8
 3059              		.cfi_offset 14, -4
 3060 194c 04B08DE2 		add	fp, sp, #4
 3061              		.cfi_def_cfa 11, 4
 3062 1950 08D04DE2 		sub	sp, sp, #8
 3063 1954 08000BE5 		str	r0, [fp, #-8]
 3064 1958 0C100BE5 		str	r1, [fp, #-12]
 432:blowfish.c    ****   return blowfish_set_key (ctx, BLOWFISH128_KEY_SIZE, key);
 3065              		.loc 1 432 10
 3066 195c 0C201BE5 		ldr	r2, [fp, #-12]
 3067 1960 1010A0E3 		mov	r1, #16
 3068 1964 08001BE5 		ldr	r0, [fp, #-8]
 3069 1968 FEFFFFEB 		bl	nettle_blowfish_set_key
 3070 196c 0030A0E1 		mov	r3, r0
 433:blowfish.c    **** }
 3071              		.loc 1 433 1
 3072 1970 0300A0E1 		mov	r0, r3
 3073 1974 04D04BE2 		sub	sp, fp, #4
 3074              		.cfi_def_cfa 13, 8
 3075              		@ sp needed
 3076 1978 0088BDE8 		pop	{fp, pc}
 3077              		.cfi_endproc
 3078              	.LFE5:
 3080              		.section	.rodata
 3081              		.align	2
 3084              	__PRETTY_FUNCTION__.4428:
 3085 1074 6E657474 		.ascii	"nettle_blowfish_encrypt\000"
 3085      6C655F62 
 3085      6C6F7766 
 3085      6973685F 
 3085      656E6372 
 3086              		.align	2
 3089              	__PRETTY_FUNCTION__.4440:
 3090 108c 6E657474 		.ascii	"nettle_blowfish_decrypt\000"
 3090      6C655F62 
 3090      6C6F7766 
 3090      6973685F 
 3090      64656372 
 3091              		.text
 3092              	.Letext0:
 3093              		.file 2 "/usr/lib/gcc-cross/arm-linux-gnueabi/9/include/stddef.h"
 3094              		.file 3 "/usr/arm-linux-gnueabi/include/bits/types.h"
 3095              		.file 4 "/usr/arm-linux-gnueabi/include/bits/stdint-uintn.h"
 3096              		.file 5 "blowfish.h"
 3097              		.file 6 "blowfish-internal.h"
