	.arch armv5t
	.eabi_attribute 20, 1
	.eabi_attribute 21, 1
	.eabi_attribute 23, 3
	.eabi_attribute 24, 1
	.eabi_attribute 25, 1
	.eabi_attribute 26, 2
	.eabi_attribute 30, 6
	.eabi_attribute 34, 0
	.eabi_attribute 18, 4
	.file	"blowfish.c"
	.text
	.global	_nettle_blowfish_initial_ctx
	.section	.rodata
	.align	2
	.type	_nettle_blowfish_initial_ctx, %object
	.size	_nettle_blowfish_initial_ctx, 4168
_nettle_blowfish_initial_ctx:
	.word	-785314906
	.word	-1730169428
	.word	805139163
	.word	-803545161
	.word	-1193168915
	.word	1780907670
	.word	-1166241723
	.word	-248741991
	.word	614570311
	.word	-1282315017
	.word	134345442
	.word	-2054226922
	.word	1667834072
	.word	1901547113
	.word	-1537671517
	.word	-191677058
	.word	227898511
	.word	1921955416
	.word	1904987480
	.word	-2112533778
	.word	2069144605
	.word	-1034266187
	.word	-1674521287
	.word	720527379
	.word	-976113629
	.word	677414384
	.word	-901678824
	.word	-1193592593
	.word	-1904616272
	.word	1614419982
	.word	1822297739
	.word	-1340175810
	.word	-686458943
	.word	-1120842969
	.word	2024746970
	.word	1432378464
	.word	-430627341
	.word	-1437226092
	.word	1464375394
	.word	1676153920
	.word	1439316330
	.word	715854006
	.word	-1261675468
	.word	289532110
	.word	-1588296017
	.word	2087905683
	.word	-1276242927
	.word	1668267050
	.word	732546397
	.word	1947742710
	.word	-832815594
	.word	-1685613794
	.word	-1344882125
	.word	1814351708
	.word	2050118529
	.word	680887927
	.word	999245976
	.word	1800124847
	.word	-994056165
	.word	1713906067
	.word	1641548236
	.word	-81679983
	.word	1216130144
	.word	1575780402
	.word	-276538019
	.word	-377129551
	.word	-601480446
	.word	-345695352
	.word	596196993
	.word	-745100091
	.word	258830323
	.word	-2081144263
	.word	772490370
	.word	-1534844924
	.word	1774776394
	.word	-1642095778
	.word	566650946
	.word	-152474470
	.word	1728879713
	.word	-1412200208
	.word	1783734482
	.word	-665571480
	.word	-1777359064
	.word	-1420741725
	.word	1861159788
	.word	326777828
	.word	-1170476976
	.word	2130389656
	.word	-1578015459
	.word	967770486
	.word	1724537150
	.word	-2109534584
	.word	-1930525159
	.word	1164943284
	.word	2105845187
	.word	998989502
	.word	-529566248
	.word	-2050940813
	.word	1075463327
	.word	1455516326
	.word	1322494562
	.word	910128902
	.word	469688178
	.word	1117454909
	.word	936433444
	.word	-804646328
	.word	-619713837
	.word	1240580251
	.word	122909385
	.word	-2137449605
	.word	634681816
	.word	-152510729
	.word	-469872614
	.word	-1233564613
	.word	-1754472259
	.word	79693498
	.word	-1045868618
	.word	1084186820
	.word	1583128258
	.word	426386531
	.word	1761308591
	.word	1047286709
	.word	322548459
	.word	995290223
	.word	1845252383
	.word	-1691314900
	.word	-863943356
	.word	-1352745719
	.word	-1092366332
	.word	-567063811
	.word	1712269319
	.word	422464435
	.word	-1060394921
	.word	1170764815
	.word	-771006663
	.word	-1177289765
	.word	1434042557
	.word	442511882
	.word	-694091578
	.word	1076654713
	.word	1738483198
	.word	-81812532
	.word	-1901729288
	.word	-617471240
	.word	1014306527
	.word	-43947243
	.word	793779912
	.word	-1392160085
	.word	842905082
	.word	-48003232
	.word	1395751752
	.word	1040244610
	.word	-1638115397
	.word	-898659168
	.word	445077038
	.word	-552113701
	.word	-717051658
	.word	679411651
	.word	-1402522938
	.word	-1940957837
	.word	1767581616
	.word	-1144366904
	.word	-503340195
	.word	-1192226400
	.word	284835224
	.word	-48135240
	.word	1258075500
	.word	768725851
	.word	-1705778055
	.word	-1225243291
	.word	-762426948
	.word	1274779536
	.word	-505548070
	.word	-1530167757
	.word	1660621633
	.word	-823867672
	.word	-283063590
	.word	913787905
	.word	-797008130
	.word	737222580
	.word	-1780753843
	.word	-1366257256
	.word	-357724559
	.word	1804850592
	.word	-795946544
	.word	-1345903136
	.word	-1908647121
	.word	-1904896841
	.word	-1879645445
	.word	-233690268
	.word	-2004305902
	.word	-1878134756
	.word	1336762016
	.word	1754252060
	.word	-774901359
	.word	-1280786003
	.word	791618072
	.word	-1106372745
	.word	-361419266
	.word	-1962795103
	.word	-442446833
	.word	-1250986776
	.word	413987798
	.word	-829824359
	.word	-1264037920
	.word	-49028937
	.word	2093235073
	.word	-760370983
	.word	375366246
	.word	-2137688315
	.word	-1815317740
	.word	555357303
	.word	-424861595
	.word	2008414854
	.word	-950779147
	.word	-73583153
	.word	-338841844
	.word	2067696032
	.word	-700376109
	.word	-1373733303
	.word	2428461
	.word	544322398
	.word	577241275
	.word	1471733935
	.word	610547355
	.word	-267798242
	.word	1432588573
	.word	1507829418
	.word	2025931657
	.word	-648391809
	.word	545086370
	.word	48609733
	.word	-2094660746
	.word	1653985193
	.word	298326376
	.word	1316178497
	.word	-1287180854
	.word	2064951626
	.word	458293330
	.word	-1705826027
	.word	-703637697
	.word	-1130641692
	.word	727753846
	.word	-2115603456
	.word	146436021
	.word	1461446943
	.word	-224990101
	.word	705550613
	.word	-1235000031
	.word	-407242314
	.word	-13368018
	.word	-981117340
	.word	1404054877
	.word	-1449160799
	.word	146425753
	.word	1854211946
	.word	1266315497
	.word	-1246549692
	.word	-613086930
	.word	-1004984797
	.word	-1385257296
	.word	1235738493
	.word	-1662099272
	.word	-1880247706
	.word	-324367247
	.word	1771706367
	.word	1449415276
	.word	-1028546847
	.word	422970021
	.word	1963543593
	.word	-1604775104
	.word	-468174274
	.word	1062508698
	.word	1531092325
	.word	1804592342
	.word	-1711849514
	.word	-1580033017
	.word	-269995787
	.word	1294809318
	.word	-265986623
	.word	1289560198
	.word	-2072974554
	.word	1669523910
	.word	35572830
	.word	157838143
	.word	1052438473
	.word	1016535060
	.word	1802137761
	.word	1753167236
	.word	1386275462
	.word	-1214491899
	.word	-1437595849
	.word	1040679964
	.word	2145300060
	.word	-1904392980
	.word	1461121720
	.word	-1338320329
	.word	-263189491
	.word	-266592508
	.word	33600511
	.word	-1374882534
	.word	1018524850
	.word	629373528
	.word	-603381315
	.word	-779021319
	.word	2091462646
	.word	-1808644237
	.word	586499841
	.word	988145025
	.word	935516892
	.word	-927631820
	.word	-1695294041
	.word	-1455136442
	.word	265290510
	.word	-322386114
	.word	-1535828415
	.word	-499593831
	.word	1005194799
	.word	847297441
	.word	406762289
	.word	1314163512
	.word	1332590856
	.word	1866599683
	.word	-167115585
	.word	750260880
	.word	613907577
	.word	1450815602
	.word	-1129346641
	.word	-560302305
	.word	-644675568
	.word	-1282691566
	.word	-590397650
	.word	1427272223
	.word	778793252
	.word	1343938022
	.word	-1618686585
	.word	2052605720
	.word	1946737175
	.word	-1130390852
	.word	-380928628
	.word	-327488454
	.word	-612033030
	.word	1661551462
	.word	-1000029230
	.word	-283371449
	.word	840292616
	.word	-582796489
	.word	616741398
	.word	312560963
	.word	711312465
	.word	1351876610
	.word	322626781
	.word	1910503582
	.word	271666773
	.word	-2119403562
	.word	1594956187
	.word	70604529
	.word	-677132437
	.word	1007753275
	.word	1495573769
	.word	-225450259
	.word	-1745748998
	.word	-1631928532
	.word	504708206
	.word	-2031925904
	.word	-353800271
	.word	-2045878774
	.word	1514023603
	.word	1998579484
	.word	1312622330
	.word	694541497
	.word	-1712906993
	.word	-2143385130
	.word	1382467621
	.word	776784248
	.word	-1676627094
	.word	-971698502
	.word	-1797068168
	.word	-1510196141
	.word	503983604
	.word	-218673497
	.word	907881277
	.word	423175695
	.word	432175456
	.word	1378068232
	.word	-149744970
	.word	-340918674
	.word	-356311194
	.word	-474200683
	.word	-1501837181
	.word	-1317062703
	.word	26017576
	.word	-1020076561
	.word	-1100195163
	.word	1700274565
	.word	1756076034
	.word	-288447217
	.word	-617638597
	.word	720338349
	.word	1533947780
	.word	354530856
	.word	688349552
	.word	-321042571
	.word	1637815568
	.word	332179504
	.word	-345916010
	.word	53804574
	.word	-1442618417
	.word	-1250730864
	.word	1282449977
	.word	-711025141
	.word	-877994476
	.word	-288586052
	.word	1617046695
	.word	-1666491221
	.word	-1292663698
	.word	1686838959
	.word	431878346
	.word	-1608291911
	.word	1700445008
	.word	1080580658
	.word	1009431731
	.word	832498133
	.word	-1071531785
	.word	-1688990951
	.word	-2023776103
	.word	-1778935426
	.word	1648197032
	.word	-130578278
	.word	-1746719369
	.word	300782431
	.word	375919233
	.word	238389289
	.word	-941219882
	.word	-1763778655
	.word	2019080857
	.word	1475708069
	.word	455242339
	.word	-1685863425
	.word	448939670
	.word	-843904277
	.word	1395535956
	.word	-1881585436
	.word	1841049896
	.word	1491858159
	.word	885456874
	.word	-30872223
	.word	-293847949
	.word	1565136089
	.word	-396052509
	.word	1108368660
	.word	540939232
	.word	1173283510
	.word	-1549095958
	.word	-613658859
	.word	-87339056
	.word	-951913406
	.word	-278217803
	.word	1699691293
	.word	1103962373
	.word	-669091426
	.word	-2038084153
	.word	-464828566
	.word	1031889488
	.word	-815619598
	.word	1535977030
	.word	-58162272
	.word	-1043876189
	.word	2132092099
	.word	1774941330
	.word	1199868427
	.word	1452454533
	.word	157007616
	.word	-1390851939
	.word	342012276
	.word	595725824
	.word	1480756522
	.word	206960106
	.word	497939518
	.word	591360097
	.word	863170706
	.word	-1919713727
	.word	-698356495
	.word	1814182875
	.word	2094937945
	.word	-873565088
	.word	1082520231
	.word	-831049106
	.word	-1509457788
	.word	435703966
	.word	-386934699
	.word	1641649973
	.word	-1452693590
	.word	-989067582
	.word	1510255612
	.word	-2146710820
	.word	-1639679442
	.word	-1018874748
	.word	-36346107
	.word	236887753
	.word	-613164077
	.word	274041037
	.word	1734335097
	.word	-479771840
	.word	-976997275
	.word	1899903192
	.word	1026095262
	.word	-244449504
	.word	356393447
	.word	-1884275382
	.word	-421290197
	.word	-612127241
	.word	-381855128
	.word	-1803468553
	.word	-162781668
	.word	-1805047500
	.word	1091903735
	.word	1979897079
	.word	-1124832466
	.word	-727580568
	.word	-737663887
	.word	857797738
	.word	1136121015
	.word	1342202287
	.word	507115054
	.word	-1759230650
	.word	337727348
	.word	-1081374656
	.word	1301675037
	.word	-1766485585
	.word	1895095763
	.word	1721773893
	.word	-1078195732
	.word	62756741
	.word	2142006736
	.word	835421444
	.word	-1762973773
	.word	1442658625
	.word	-635090970
	.word	-1412822374
	.word	676362277
	.word	1392781812
	.word	170690266
	.word	-373920261
	.word	1759253602
	.word	-683120384
	.word	1745797284
	.word	664899054
	.word	1329594018
	.word	-393761396
	.word	-1249058810
	.word	2062866102
	.word	-1429332356
	.word	-751345684
	.word	-830954599
	.word	1080764994
	.word	553557557
	.word	-638351943
	.word	-298199125
	.word	991055499
	.word	499776247
	.word	1265440854
	.word	648242737
	.word	-354183246
	.word	980351604
	.word	-581221582
	.word	1749149687
	.word	-898096901
	.word	-83167922
	.word	-654396521
	.word	1161844396
	.word	-1169648345
	.word	1431517754
	.word	545492359
	.word	-26498633
	.word	-795437749
	.word	1437099964
	.word	-1592419752
	.word	-861329053
	.word	-1713251533
	.word	-1507177898
	.word	1060185593
	.word	1593081372
	.word	-1876348548
	.word	-34019326
	.word	69676912
	.word	-2135222948
	.word	86519011
	.word	-1782508216
	.word	-456757982
	.word	1220612927
	.word	-955283748
	.word	133810670
	.word	1090789135
	.word	1078426020
	.word	1569222167
	.word	845107691
	.word	-711212847
	.word	-222510705
	.word	1091646820
	.word	628848692
	.word	1613405280
	.word	-537335645
	.word	526609435
	.word	236106946
	.word	48312990
	.word	-1352249391
	.word	-892239595
	.word	1797494240
	.word	859738849
	.word	992217954
	.word	-289490654
	.word	-2051890674
	.word	-424014439
	.word	-562951028
	.word	765654824
	.word	-804095931
	.word	-1783130883
	.word	1685915746
	.word	-405998096
	.word	1414112111
	.word	-2021832454
	.word	-1013056217
	.word	-214004450
	.word	172450625
	.word	-1724973196
	.word	980381355
	.word	-185008841
	.word	-1475158944
	.word	-1578377736
	.word	-1726226100
	.word	-613520627
	.word	-964995824
	.word	1835478071
	.word	660984891
	.word	-590288892
	.word	-248967737
	.word	-872349789
	.word	-1254551662
	.word	1762651403
	.word	1719377915
	.word	-824476260
	.word	-1601057013
	.word	-652910941
	.word	-1156370552
	.word	1364962596
	.word	2073328063
	.word	1983633131
	.word	926494387
	.word	-871278215
	.word	-2144935273
	.word	-198299347
	.word	1749200295
	.word	-966120645
	.word	309677260
	.word	2016342300
	.word	1779581495
	.word	-1215147545
	.word	111262694
	.word	1274766160
	.word	443224088
	.word	298511866
	.word	1025883608
	.word	-488520759
	.word	1145181785
	.word	168956806
	.word	-653464466
	.word	-710153686
	.word	1689216846
	.word	-628709281
	.word	-1094719096
	.word	1692713982
	.word	-1648590761
	.word	-252198778
	.word	1618508792
	.word	1610833997
	.word	-771914938
	.word	-164094032
	.word	2001055236
	.word	-684262196
	.word	-2092799181
	.word	-266425487
	.word	-1333771897
	.word	1006657119
	.word	2006996926
	.word	-1108824540
	.word	1430667929
	.word	-1084739999
	.word	1314452623
	.word	-220332638
	.word	-193663176
	.word	-2021016126
	.word	1399257539
	.word	-927756684
	.word	-1267338667
	.word	1190975929
	.word	2062231137
	.word	-1960976508
	.word	-2073424263
	.word	-1856006686
	.word	1181637006
	.word	548689776
	.word	-1932175983
	.word	-922558900
	.word	-1190417183
	.word	-1149106736
	.word	296247880
	.word	1970579870
	.word	-1216407114
	.word	-525738999
	.word	1714227617
	.word	-1003338189
	.word	-396747006
	.word	166772364
	.word	1251581989
	.word	493813264
	.word	448347421
	.word	195405023
	.word	-1584991729
	.word	677966185
	.word	-591930749
	.word	1463355134
	.word	-1578971493
	.word	1338867538
	.word	1343315457
	.word	-1492745222
	.word	-1610435132
	.word	233230375
	.word	-1694987225
	.word	2000651841
	.word	-1017099258
	.word	1638401717
	.word	-266896856
	.word	-1057650976
	.word	6314154
	.word	819756386
	.word	300326615
	.word	590932579
	.word	1405279636
	.word	-1027467724
	.word	-1144263082
	.word	-1866680610
	.word	-335774303
	.word	-833020554
	.word	1862657033
	.word	1266418056
	.word	963775037
	.word	2089974820
	.word	-2031914401
	.word	1917689273
	.word	448879540
	.word	-744572676
	.word	-313240200
	.word	150775221
	.word	-667058989
	.word	1303187396
	.word	508620638
	.word	-1318983944
	.word	-1568336679
	.word	1817252668
	.word	1876281319
	.word	1457606340
	.word	908771278
	.word	-574175177
	.word	-677760460
	.word	-1838972398
	.word	1729034894
	.word	1080033504
	.word	976866871
	.word	-738527793
	.word	-1413318857
	.word	1522871579
	.word	1555064734
	.word	1336096578
	.word	-746444992
	.word	-1715692610
	.word	-720269667
	.word	-1089506539
	.word	-701686658
	.word	-956251013
	.word	-1215554709
	.word	564236357
	.word	-1301368386
	.word	1781952180
	.word	1464380207
	.word	-1131123079
	.word	-962365742
	.word	1699332808
	.word	1393555694
	.word	1183702653
	.word	-713881059
	.word	1288719814
	.word	691649499
	.word	-1447410096
	.word	-1399511320
	.word	-1101077756
	.word	-1577396752
	.word	1781354906
	.word	1676643554
	.word	-1702433246
	.word	-1064713544
	.word	1126444790
	.word	-1524759638
	.word	-1661808476
	.word	-2084544070
	.word	-1679201715
	.word	-1880812208
	.word	-1167828010
	.word	673620729
	.word	-1489356063
	.word	1269405062
	.word	-279616791
	.word	-953159725
	.word	-145557542
	.word	1057255273
	.word	2012875353
	.word	-2132498155
	.word	-2018474495
	.word	-1693849939
	.word	993977747
	.word	-376373926
	.word	-1640704105
	.word	753973209
	.word	36408145
	.word	-1764381638
	.word	25011837
	.word	-774947114
	.word	2088578344
	.word	530523599
	.word	-1376601957
	.word	1524020338
	.word	1518925132
	.word	-534139791
	.word	-535190042
	.word	1202760957
	.word	-309069157
	.word	-388774771
	.word	674977740
	.word	-120232407
	.word	2031300136
	.word	2019492241
	.word	-311074731
	.word	-141160892
	.word	-472686964
	.word	352677332
	.word	-1997247046
	.word	60907813
	.word	90501309
	.word	-1007968747
	.word	1016092578
	.word	-1759044884
	.word	-1455814870
	.word	457141659
	.word	509813237
	.word	-174299397
	.word	652014361
	.word	1966332200
	.word	-1319764491
	.word	55981186
	.word	-1967506245
	.word	676427537
	.word	-1039476232
	.word	-1412673177
	.word	-861040033
	.word	1307055953
	.word	942726286
	.word	933058658
	.word	-1826555503
	.word	-361066302
	.word	-79791154
	.word	1361170020
	.word	2001714738
	.word	-1464409218
	.word	-1020707514
	.word	1222529897
	.word	1679025792
	.word	-1565652976
	.word	-580013532
	.word	1770335741
	.word	151462246
	.word	-1281735158
	.word	1682292957
	.word	1483529935
	.word	471910574
	.word	1539241949
	.word	458788160
	.word	-858652289
	.word	1807016891
	.word	-576558466
	.word	978976581
	.word	1043663428
	.word	-1129001515
	.word	1927990952
	.word	-94075717
	.word	-1922690386
	.word	-1086558393
	.word	-761535389
	.word	1412390302
	.word	-1362987237
	.word	-162634896
	.word	1947078029
	.word	-413461673
	.word	-126740879
	.word	-1353482915
	.word	1077988104
	.word	1320477388
	.word	886195818
	.word	18198404
	.word	-508558296
	.word	-1785185763
	.word	112762804
	.word	-831610808
	.word	1866414978
	.word	891333506
	.word	18488651
	.word	661792760
	.word	1628790961
	.word	-409780260
	.word	-1153795797
	.word	876946877
	.word	-1601685023
	.word	1372485963
	.word	791857591
	.word	-1608533303
	.word	-534984578
	.word	-1127755274
	.word	-822013501
	.word	-1578587449
	.word	445679433
	.word	-732971622
	.word	-790962485
	.word	-720709064
	.word	54117162
	.word	-963561881
	.word	-1913048708
	.word	-525259953
	.word	-140617289
	.word	1140177722
	.word	-220915201
	.word	668550556
	.word	-1080614356
	.word	367459370
	.word	261225585
	.word	-1684794075
	.word	-85617823
	.word	-826893077
	.word	-1029151655
	.word	314222801
	.word	-1228863650
	.word	-486184436
	.word	282218597
	.word	-888953790
	.word	-521376242
	.word	379116347
	.word	1285071038
	.word	846784868
	.word	-1625320142
	.word	-523005217
	.word	-744475605
	.word	-1989021154
	.word	453669953
	.word	1268987020
	.word	-977374944
	.word	-1015663912
	.word	-550133875
	.word	-1684459730
	.word	-435458233
	.word	266596637
	.word	-447948204
	.word	517658769
	.word	-832407089
	.word	-851542417
	.word	370717030
	.word	-47440635
	.word	-2070949179
	.word	-151313767
	.word	-182193321
	.word	-1506642397
	.word	-1817692879
	.word	1456262402
	.word	-1393524382
	.word	1517677493
	.word	1846949527
	.word	-1999473716
	.word	-560569710
	.word	-2118563376
	.word	1280348187
	.word	1908823572
	.word	-423180355
	.word	846861322
	.word	1172426758
	.word	-1007518822
	.word	-911584259
	.word	1655181056
	.word	-1155153950
	.word	901632758
	.word	1897031941
	.word	-1308360158
	.word	-1228157060
	.word	-847864789
	.word	1393639104
	.word	373351379
	.word	950779232
	.word	625454576
	.word	-1170726756
	.word	-146354570
	.word	2007998917
	.word	544563296
	.word	-2050228658
	.word	-1964470824
	.word	2058025392
	.word	1291430526
	.word	424198748
	.word	50039436
	.word	29584100
	.word	-689184263
	.word	-1865090967
	.word	-1503863136
	.word	1057563949
	.word	-1039604065
	.word	-1219600078
	.word	-831004069
	.word	1469046755
	.word	985887462
	.word	608135816
	.word	-2052912941
	.word	320440878
	.word	57701188
	.word	-1542899678
	.word	698298832
	.word	137296536
	.word	-330404727
	.word	1160258022
	.word	953160567
	.word	-1101764913
	.word	887688300
	.word	-1062458953
	.word	-914599715
	.word	1065670069
	.word	-1253635817
	.word	-1843997223
	.word	-1988494565
	.text
	.align	2
	.global	_nettle_blowfish_encround
	.syntax unified
	.arm
	.fpu softvfp
	.type	_nettle_blowfish_encround, %function
_nettle_blowfish_encround:
	@ args = 0, pretend = 0, frame = 24
	@ frame_needed = 1, uses_anonymous_args = 0
	@ link register save eliminated.
	str	fp, [sp, #-4]!
	add	fp, sp, #0
	sub	sp, sp, #28
	str	r0, [fp, #-16]
	str	r1, [fp, #-20]
	str	r2, [fp, #-24]
	ldr	r3, [fp, #-20]
	ldr	r3, [r3]
	str	r3, [fp, #-12]
	ldr	r3, [fp, #-24]
	ldr	r3, [r3]
	str	r3, [fp, #-8]
	ldr	r3, [fp, #-16]
	add	r3, r3, #4096
	ldr	r3, [r3]
	ldr	r2, [fp, #-12]
	eor	r3, r3, r2
	str	r3, [fp, #-12]
	ldr	r3, [fp, #-12]
	lsr	r2, r3, #24
	ldr	r3, [fp, #-16]
	ldr	r2, [r3, r2, lsl #2]
	ldr	r3, [fp, #-12]
	lsr	r3, r3, #16
	and	r1, r3, #255
	ldr	r3, [fp, #-16]
	add	r1, r1, #256
	ldr	r3, [r3, r1, lsl #2]
	add	r2, r2, r3
	ldr	r3, [fp, #-12]
	lsr	r3, r3, #8
	and	r1, r3, #255
	ldr	r3, [fp, #-16]
	add	r1, r1, #512
	ldr	r3, [r3, r1, lsl #2]
	eor	r2, r2, r3
	ldr	r3, [fp, #-12]
	and	r1, r3, #255
	ldr	r3, [fp, #-16]
	add	r1, r1, #768
	ldr	r3, [r3, r1, lsl #2]
	add	r3, r2, r3
	ldr	r2, [fp, #-8]
	eor	r3, r3, r2
	str	r3, [fp, #-8]
	ldr	r3, [fp, #-16]
	add	r3, r3, #4096
	ldr	r3, [r3, #4]
	ldr	r2, [fp, #-8]
	eor	r3, r3, r2
	str	r3, [fp, #-8]
	ldr	r3, [fp, #-8]
	lsr	r2, r3, #24
	ldr	r3, [fp, #-16]
	ldr	r2, [r3, r2, lsl #2]
	ldr	r3, [fp, #-8]
	lsr	r3, r3, #16
	and	r1, r3, #255
	ldr	r3, [fp, #-16]
	add	r1, r1, #256
	ldr	r3, [r3, r1, lsl #2]
	add	r2, r2, r3
	ldr	r3, [fp, #-8]
	lsr	r3, r3, #8
	and	r1, r3, #255
	ldr	r3, [fp, #-16]
	add	r1, r1, #512
	ldr	r3, [r3, r1, lsl #2]
	eor	r2, r2, r3
	ldr	r3, [fp, #-8]
	and	r1, r3, #255
	ldr	r3, [fp, #-16]
	add	r1, r1, #768
	ldr	r3, [r3, r1, lsl #2]
	add	r3, r2, r3
	ldr	r2, [fp, #-12]
	eor	r3, r3, r2
	str	r3, [fp, #-12]
	ldr	r3, [fp, #-16]
	add	r3, r3, #4096
	ldr	r3, [r3, #8]
	ldr	r2, [fp, #-12]
	eor	r3, r3, r2
	str	r3, [fp, #-12]
	ldr	r3, [fp, #-12]
	lsr	r2, r3, #24
	ldr	r3, [fp, #-16]
	ldr	r2, [r3, r2, lsl #2]
	ldr	r3, [fp, #-12]
	lsr	r3, r3, #16
	and	r1, r3, #255
	ldr	r3, [fp, #-16]
	add	r1, r1, #256
	ldr	r3, [r3, r1, lsl #2]
	add	r2, r2, r3
	ldr	r3, [fp, #-12]
	lsr	r3, r3, #8
	and	r1, r3, #255
	ldr	r3, [fp, #-16]
	add	r1, r1, #512
	ldr	r3, [r3, r1, lsl #2]
	eor	r2, r2, r3
	ldr	r3, [fp, #-12]
	and	r1, r3, #255
	ldr	r3, [fp, #-16]
	add	r1, r1, #768
	ldr	r3, [r3, r1, lsl #2]
	add	r3, r2, r3
	ldr	r2, [fp, #-8]
	eor	r3, r3, r2
	str	r3, [fp, #-8]
	ldr	r3, [fp, #-16]
	add	r3, r3, #4096
	ldr	r3, [r3, #12]
	ldr	r2, [fp, #-8]
	eor	r3, r3, r2
	str	r3, [fp, #-8]
	ldr	r3, [fp, #-8]
	lsr	r2, r3, #24
	ldr	r3, [fp, #-16]
	ldr	r2, [r3, r2, lsl #2]
	ldr	r3, [fp, #-8]
	lsr	r3, r3, #16
	and	r1, r3, #255
	ldr	r3, [fp, #-16]
	add	r1, r1, #256
	ldr	r3, [r3, r1, lsl #2]
	add	r2, r2, r3
	ldr	r3, [fp, #-8]
	lsr	r3, r3, #8
	and	r1, r3, #255
	ldr	r3, [fp, #-16]
	add	r1, r1, #512
	ldr	r3, [r3, r1, lsl #2]
	eor	r2, r2, r3
	ldr	r3, [fp, #-8]
	and	r1, r3, #255
	ldr	r3, [fp, #-16]
	add	r1, r1, #768
	ldr	r3, [r3, r1, lsl #2]
	add	r3, r2, r3
	ldr	r2, [fp, #-12]
	eor	r3, r3, r2
	str	r3, [fp, #-12]
	ldr	r3, [fp, #-16]
	add	r3, r3, #4096
	ldr	r3, [r3, #16]
	ldr	r2, [fp, #-12]
	eor	r3, r3, r2
	str	r3, [fp, #-12]
	ldr	r3, [fp, #-12]
	lsr	r2, r3, #24
	ldr	r3, [fp, #-16]
	ldr	r2, [r3, r2, lsl #2]
	ldr	r3, [fp, #-12]
	lsr	r3, r3, #16
	and	r1, r3, #255
	ldr	r3, [fp, #-16]
	add	r1, r1, #256
	ldr	r3, [r3, r1, lsl #2]
	add	r2, r2, r3
	ldr	r3, [fp, #-12]
	lsr	r3, r3, #8
	and	r1, r3, #255
	ldr	r3, [fp, #-16]
	add	r1, r1, #512
	ldr	r3, [r3, r1, lsl #2]
	eor	r2, r2, r3
	ldr	r3, [fp, #-12]
	and	r1, r3, #255
	ldr	r3, [fp, #-16]
	add	r1, r1, #768
	ldr	r3, [r3, r1, lsl #2]
	add	r3, r2, r3
	ldr	r2, [fp, #-8]
	eor	r3, r3, r2
	str	r3, [fp, #-8]
	ldr	r3, [fp, #-16]
	add	r3, r3, #4096
	ldr	r3, [r3, #20]
	ldr	r2, [fp, #-8]
	eor	r3, r3, r2
	str	r3, [fp, #-8]
	ldr	r3, [fp, #-8]
	lsr	r2, r3, #24
	ldr	r3, [fp, #-16]
	ldr	r2, [r3, r2, lsl #2]
	ldr	r3, [fp, #-8]
	lsr	r3, r3, #16
	and	r1, r3, #255
	ldr	r3, [fp, #-16]
	add	r1, r1, #256
	ldr	r3, [r3, r1, lsl #2]
	add	r2, r2, r3
	ldr	r3, [fp, #-8]
	lsr	r3, r3, #8
	and	r1, r3, #255
	ldr	r3, [fp, #-16]
	add	r1, r1, #512
	ldr	r3, [r3, r1, lsl #2]
	eor	r2, r2, r3
	ldr	r3, [fp, #-8]
	and	r1, r3, #255
	ldr	r3, [fp, #-16]
	add	r1, r1, #768
	ldr	r3, [r3, r1, lsl #2]
	add	r3, r2, r3
	ldr	r2, [fp, #-12]
	eor	r3, r3, r2
	str	r3, [fp, #-12]
	ldr	r3, [fp, #-16]
	add	r3, r3, #4096
	ldr	r3, [r3, #24]
	ldr	r2, [fp, #-12]
	eor	r3, r3, r2
	str	r3, [fp, #-12]
	ldr	r3, [fp, #-12]
	lsr	r2, r3, #24
	ldr	r3, [fp, #-16]
	ldr	r2, [r3, r2, lsl #2]
	ldr	r3, [fp, #-12]
	lsr	r3, r3, #16
	and	r1, r3, #255
	ldr	r3, [fp, #-16]
	add	r1, r1, #256
	ldr	r3, [r3, r1, lsl #2]
	add	r2, r2, r3
	ldr	r3, [fp, #-12]
	lsr	r3, r3, #8
	and	r1, r3, #255
	ldr	r3, [fp, #-16]
	add	r1, r1, #512
	ldr	r3, [r3, r1, lsl #2]
	eor	r2, r2, r3
	ldr	r3, [fp, #-12]
	and	r1, r3, #255
	ldr	r3, [fp, #-16]
	add	r1, r1, #768
	ldr	r3, [r3, r1, lsl #2]
	add	r3, r2, r3
	ldr	r2, [fp, #-8]
	eor	r3, r3, r2
	str	r3, [fp, #-8]
	ldr	r3, [fp, #-16]
	add	r3, r3, #4096
	ldr	r3, [r3, #28]
	ldr	r2, [fp, #-8]
	eor	r3, r3, r2
	str	r3, [fp, #-8]
	ldr	r3, [fp, #-8]
	lsr	r2, r3, #24
	ldr	r3, [fp, #-16]
	ldr	r2, [r3, r2, lsl #2]
	ldr	r3, [fp, #-8]
	lsr	r3, r3, #16
	and	r1, r3, #255
	ldr	r3, [fp, #-16]
	add	r1, r1, #256
	ldr	r3, [r3, r1, lsl #2]
	add	r2, r2, r3
	ldr	r3, [fp, #-8]
	lsr	r3, r3, #8
	and	r1, r3, #255
	ldr	r3, [fp, #-16]
	add	r1, r1, #512
	ldr	r3, [r3, r1, lsl #2]
	eor	r2, r2, r3
	ldr	r3, [fp, #-8]
	and	r1, r3, #255
	ldr	r3, [fp, #-16]
	add	r1, r1, #768
	ldr	r3, [r3, r1, lsl #2]
	add	r3, r2, r3
	ldr	r2, [fp, #-12]
	eor	r3, r3, r2
	str	r3, [fp, #-12]
	ldr	r3, [fp, #-16]
	add	r3, r3, #4096
	ldr	r3, [r3, #32]
	ldr	r2, [fp, #-12]
	eor	r3, r3, r2
	str	r3, [fp, #-12]
	ldr	r3, [fp, #-12]
	lsr	r2, r3, #24
	ldr	r3, [fp, #-16]
	ldr	r2, [r3, r2, lsl #2]
	ldr	r3, [fp, #-12]
	lsr	r3, r3, #16
	and	r1, r3, #255
	ldr	r3, [fp, #-16]
	add	r1, r1, #256
	ldr	r3, [r3, r1, lsl #2]
	add	r2, r2, r3
	ldr	r3, [fp, #-12]
	lsr	r3, r3, #8
	and	r1, r3, #255
	ldr	r3, [fp, #-16]
	add	r1, r1, #512
	ldr	r3, [r3, r1, lsl #2]
	eor	r2, r2, r3
	ldr	r3, [fp, #-12]
	and	r1, r3, #255
	ldr	r3, [fp, #-16]
	add	r1, r1, #768
	ldr	r3, [r3, r1, lsl #2]
	add	r3, r2, r3
	ldr	r2, [fp, #-8]
	eor	r3, r3, r2
	str	r3, [fp, #-8]
	ldr	r3, [fp, #-16]
	add	r3, r3, #4096
	ldr	r3, [r3, #36]
	ldr	r2, [fp, #-8]
	eor	r3, r3, r2
	str	r3, [fp, #-8]
	ldr	r3, [fp, #-8]
	lsr	r2, r3, #24
	ldr	r3, [fp, #-16]
	ldr	r2, [r3, r2, lsl #2]
	ldr	r3, [fp, #-8]
	lsr	r3, r3, #16
	and	r1, r3, #255
	ldr	r3, [fp, #-16]
	add	r1, r1, #256
	ldr	r3, [r3, r1, lsl #2]
	add	r2, r2, r3
	ldr	r3, [fp, #-8]
	lsr	r3, r3, #8
	and	r1, r3, #255
	ldr	r3, [fp, #-16]
	add	r1, r1, #512
	ldr	r3, [r3, r1, lsl #2]
	eor	r2, r2, r3
	ldr	r3, [fp, #-8]
	and	r1, r3, #255
	ldr	r3, [fp, #-16]
	add	r1, r1, #768
	ldr	r3, [r3, r1, lsl #2]
	add	r3, r2, r3
	ldr	r2, [fp, #-12]
	eor	r3, r3, r2
	str	r3, [fp, #-12]
	ldr	r3, [fp, #-16]
	add	r3, r3, #4096
	ldr	r3, [r3, #40]
	ldr	r2, [fp, #-12]
	eor	r3, r3, r2
	str	r3, [fp, #-12]
	ldr	r3, [fp, #-12]
	lsr	r2, r3, #24
	ldr	r3, [fp, #-16]
	ldr	r2, [r3, r2, lsl #2]
	ldr	r3, [fp, #-12]
	lsr	r3, r3, #16
	and	r1, r3, #255
	ldr	r3, [fp, #-16]
	add	r1, r1, #256
	ldr	r3, [r3, r1, lsl #2]
	add	r2, r2, r3
	ldr	r3, [fp, #-12]
	lsr	r3, r3, #8
	and	r1, r3, #255
	ldr	r3, [fp, #-16]
	add	r1, r1, #512
	ldr	r3, [r3, r1, lsl #2]
	eor	r2, r2, r3
	ldr	r3, [fp, #-12]
	and	r1, r3, #255
	ldr	r3, [fp, #-16]
	add	r1, r1, #768
	ldr	r3, [r3, r1, lsl #2]
	add	r3, r2, r3
	ldr	r2, [fp, #-8]
	eor	r3, r3, r2
	str	r3, [fp, #-8]
	ldr	r3, [fp, #-16]
	add	r3, r3, #4096
	ldr	r3, [r3, #44]
	ldr	r2, [fp, #-8]
	eor	r3, r3, r2
	str	r3, [fp, #-8]
	ldr	r3, [fp, #-8]
	lsr	r2, r3, #24
	ldr	r3, [fp, #-16]
	ldr	r2, [r3, r2, lsl #2]
	ldr	r3, [fp, #-8]
	lsr	r3, r3, #16
	and	r1, r3, #255
	ldr	r3, [fp, #-16]
	add	r1, r1, #256
	ldr	r3, [r3, r1, lsl #2]
	add	r2, r2, r3
	ldr	r3, [fp, #-8]
	lsr	r3, r3, #8
	and	r1, r3, #255
	ldr	r3, [fp, #-16]
	add	r1, r1, #512
	ldr	r3, [r3, r1, lsl #2]
	eor	r2, r2, r3
	ldr	r3, [fp, #-8]
	and	r1, r3, #255
	ldr	r3, [fp, #-16]
	add	r1, r1, #768
	ldr	r3, [r3, r1, lsl #2]
	add	r3, r2, r3
	ldr	r2, [fp, #-12]
	eor	r3, r3, r2
	str	r3, [fp, #-12]
	ldr	r3, [fp, #-16]
	add	r3, r3, #4096
	ldr	r3, [r3, #48]
	ldr	r2, [fp, #-12]
	eor	r3, r3, r2
	str	r3, [fp, #-12]
	ldr	r3, [fp, #-12]
	lsr	r2, r3, #24
	ldr	r3, [fp, #-16]
	ldr	r2, [r3, r2, lsl #2]
	ldr	r3, [fp, #-12]
	lsr	r3, r3, #16
	and	r1, r3, #255
	ldr	r3, [fp, #-16]
	add	r1, r1, #256
	ldr	r3, [r3, r1, lsl #2]
	add	r2, r2, r3
	ldr	r3, [fp, #-12]
	lsr	r3, r3, #8
	and	r1, r3, #255
	ldr	r3, [fp, #-16]
	add	r1, r1, #512
	ldr	r3, [r3, r1, lsl #2]
	eor	r2, r2, r3
	ldr	r3, [fp, #-12]
	and	r1, r3, #255
	ldr	r3, [fp, #-16]
	add	r1, r1, #768
	ldr	r3, [r3, r1, lsl #2]
	add	r3, r2, r3
	ldr	r2, [fp, #-8]
	eor	r3, r3, r2
	str	r3, [fp, #-8]
	ldr	r3, [fp, #-16]
	add	r3, r3, #4096
	ldr	r3, [r3, #52]
	ldr	r2, [fp, #-8]
	eor	r3, r3, r2
	str	r3, [fp, #-8]
	ldr	r3, [fp, #-8]
	lsr	r2, r3, #24
	ldr	r3, [fp, #-16]
	ldr	r2, [r3, r2, lsl #2]
	ldr	r3, [fp, #-8]
	lsr	r3, r3, #16
	and	r1, r3, #255
	ldr	r3, [fp, #-16]
	add	r1, r1, #256
	ldr	r3, [r3, r1, lsl #2]
	add	r2, r2, r3
	ldr	r3, [fp, #-8]
	lsr	r3, r3, #8
	and	r1, r3, #255
	ldr	r3, [fp, #-16]
	add	r1, r1, #512
	ldr	r3, [r3, r1, lsl #2]
	eor	r2, r2, r3
	ldr	r3, [fp, #-8]
	and	r1, r3, #255
	ldr	r3, [fp, #-16]
	add	r1, r1, #768
	ldr	r3, [r3, r1, lsl #2]
	add	r3, r2, r3
	ldr	r2, [fp, #-12]
	eor	r3, r3, r2
	str	r3, [fp, #-12]
	ldr	r3, [fp, #-16]
	add	r3, r3, #4096
	ldr	r3, [r3, #56]
	ldr	r2, [fp, #-12]
	eor	r3, r3, r2
	str	r3, [fp, #-12]
	ldr	r3, [fp, #-12]
	lsr	r2, r3, #24
	ldr	r3, [fp, #-16]
	ldr	r2, [r3, r2, lsl #2]
	ldr	r3, [fp, #-12]
	lsr	r3, r3, #16
	and	r1, r3, #255
	ldr	r3, [fp, #-16]
	add	r1, r1, #256
	ldr	r3, [r3, r1, lsl #2]
	add	r2, r2, r3
	ldr	r3, [fp, #-12]
	lsr	r3, r3, #8
	and	r1, r3, #255
	ldr	r3, [fp, #-16]
	add	r1, r1, #512
	ldr	r3, [r3, r1, lsl #2]
	eor	r2, r2, r3
	ldr	r3, [fp, #-12]
	and	r1, r3, #255
	ldr	r3, [fp, #-16]
	add	r1, r1, #768
	ldr	r3, [r3, r1, lsl #2]
	add	r3, r2, r3
	ldr	r2, [fp, #-8]
	eor	r3, r3, r2
	str	r3, [fp, #-8]
	ldr	r3, [fp, #-16]
	add	r3, r3, #4096
	ldr	r3, [r3, #60]
	ldr	r2, [fp, #-8]
	eor	r3, r3, r2
	str	r3, [fp, #-8]
	ldr	r3, [fp, #-8]
	lsr	r2, r3, #24
	ldr	r3, [fp, #-16]
	ldr	r2, [r3, r2, lsl #2]
	ldr	r3, [fp, #-8]
	lsr	r3, r3, #16
	and	r1, r3, #255
	ldr	r3, [fp, #-16]
	add	r1, r1, #256
	ldr	r3, [r3, r1, lsl #2]
	add	r2, r2, r3
	ldr	r3, [fp, #-8]
	lsr	r3, r3, #8
	and	r1, r3, #255
	ldr	r3, [fp, #-16]
	add	r1, r1, #512
	ldr	r3, [r3, r1, lsl #2]
	eor	r2, r2, r3
	ldr	r3, [fp, #-8]
	and	r1, r3, #255
	ldr	r3, [fp, #-16]
	add	r1, r1, #768
	ldr	r3, [r3, r1, lsl #2]
	add	r3, r2, r3
	ldr	r2, [fp, #-12]
	eor	r3, r3, r2
	str	r3, [fp, #-12]
	ldr	r3, [fp, #-16]
	add	r3, r3, #4096
	ldr	r3, [r3, #64]
	ldr	r2, [fp, #-12]
	eor	r3, r3, r2
	str	r3, [fp, #-12]
	ldr	r3, [fp, #-16]
	add	r3, r3, #4096
	ldr	r3, [r3, #68]
	ldr	r2, [fp, #-8]
	eor	r3, r3, r2
	str	r3, [fp, #-8]
	ldr	r3, [fp, #-20]
	ldr	r2, [fp, #-8]
	str	r2, [r3]
	ldr	r3, [fp, #-24]
	ldr	r2, [fp, #-12]
	str	r2, [r3]
	nop
	add	sp, fp, #0
	@ sp needed
	ldr	fp, [sp], #4
	bx	lr
	.size	_nettle_blowfish_encround, .-_nettle_blowfish_encround
	.align	2
	.syntax unified
	.arm
	.fpu softvfp
	.type	decround, %function
decround:
	@ args = 0, pretend = 0, frame = 24
	@ frame_needed = 1, uses_anonymous_args = 0
	@ link register save eliminated.
	str	fp, [sp, #-4]!
	add	fp, sp, #0
	sub	sp, sp, #28
	str	r0, [fp, #-16]
	str	r1, [fp, #-20]
	str	r2, [fp, #-24]
	ldr	r3, [fp, #-20]
	ldr	r3, [r3]
	str	r3, [fp, #-12]
	ldr	r3, [fp, #-24]
	ldr	r3, [r3]
	str	r3, [fp, #-8]
	ldr	r3, [fp, #-16]
	add	r3, r3, #4096
	ldr	r3, [r3, #68]
	ldr	r2, [fp, #-12]
	eor	r3, r3, r2
	str	r3, [fp, #-12]
	ldr	r3, [fp, #-12]
	lsr	r2, r3, #24
	ldr	r3, [fp, #-16]
	ldr	r2, [r3, r2, lsl #2]
	ldr	r3, [fp, #-12]
	lsr	r3, r3, #16
	and	r1, r3, #255
	ldr	r3, [fp, #-16]
	add	r1, r1, #256
	ldr	r3, [r3, r1, lsl #2]
	add	r2, r2, r3
	ldr	r3, [fp, #-12]
	lsr	r3, r3, #8
	and	r1, r3, #255
	ldr	r3, [fp, #-16]
	add	r1, r1, #512
	ldr	r3, [r3, r1, lsl #2]
	eor	r2, r2, r3
	ldr	r3, [fp, #-12]
	and	r1, r3, #255
	ldr	r3, [fp, #-16]
	add	r1, r1, #768
	ldr	r3, [r3, r1, lsl #2]
	add	r3, r2, r3
	ldr	r2, [fp, #-8]
	eor	r3, r3, r2
	str	r3, [fp, #-8]
	ldr	r3, [fp, #-16]
	add	r3, r3, #4096
	ldr	r3, [r3, #64]
	ldr	r2, [fp, #-8]
	eor	r3, r3, r2
	str	r3, [fp, #-8]
	ldr	r3, [fp, #-8]
	lsr	r2, r3, #24
	ldr	r3, [fp, #-16]
	ldr	r2, [r3, r2, lsl #2]
	ldr	r3, [fp, #-8]
	lsr	r3, r3, #16
	and	r1, r3, #255
	ldr	r3, [fp, #-16]
	add	r1, r1, #256
	ldr	r3, [r3, r1, lsl #2]
	add	r2, r2, r3
	ldr	r3, [fp, #-8]
	lsr	r3, r3, #8
	and	r1, r3, #255
	ldr	r3, [fp, #-16]
	add	r1, r1, #512
	ldr	r3, [r3, r1, lsl #2]
	eor	r2, r2, r3
	ldr	r3, [fp, #-8]
	and	r1, r3, #255
	ldr	r3, [fp, #-16]
	add	r1, r1, #768
	ldr	r3, [r3, r1, lsl #2]
	add	r3, r2, r3
	ldr	r2, [fp, #-12]
	eor	r3, r3, r2
	str	r3, [fp, #-12]
	ldr	r3, [fp, #-16]
	add	r3, r3, #4096
	ldr	r3, [r3, #60]
	ldr	r2, [fp, #-12]
	eor	r3, r3, r2
	str	r3, [fp, #-12]
	ldr	r3, [fp, #-12]
	lsr	r2, r3, #24
	ldr	r3, [fp, #-16]
	ldr	r2, [r3, r2, lsl #2]
	ldr	r3, [fp, #-12]
	lsr	r3, r3, #16
	and	r1, r3, #255
	ldr	r3, [fp, #-16]
	add	r1, r1, #256
	ldr	r3, [r3, r1, lsl #2]
	add	r2, r2, r3
	ldr	r3, [fp, #-12]
	lsr	r3, r3, #8
	and	r1, r3, #255
	ldr	r3, [fp, #-16]
	add	r1, r1, #512
	ldr	r3, [r3, r1, lsl #2]
	eor	r2, r2, r3
	ldr	r3, [fp, #-12]
	and	r1, r3, #255
	ldr	r3, [fp, #-16]
	add	r1, r1, #768
	ldr	r3, [r3, r1, lsl #2]
	add	r3, r2, r3
	ldr	r2, [fp, #-8]
	eor	r3, r3, r2
	str	r3, [fp, #-8]
	ldr	r3, [fp, #-16]
	add	r3, r3, #4096
	ldr	r3, [r3, #56]
	ldr	r2, [fp, #-8]
	eor	r3, r3, r2
	str	r3, [fp, #-8]
	ldr	r3, [fp, #-8]
	lsr	r2, r3, #24
	ldr	r3, [fp, #-16]
	ldr	r2, [r3, r2, lsl #2]
	ldr	r3, [fp, #-8]
	lsr	r3, r3, #16
	and	r1, r3, #255
	ldr	r3, [fp, #-16]
	add	r1, r1, #256
	ldr	r3, [r3, r1, lsl #2]
	add	r2, r2, r3
	ldr	r3, [fp, #-8]
	lsr	r3, r3, #8
	and	r1, r3, #255
	ldr	r3, [fp, #-16]
	add	r1, r1, #512
	ldr	r3, [r3, r1, lsl #2]
	eor	r2, r2, r3
	ldr	r3, [fp, #-8]
	and	r1, r3, #255
	ldr	r3, [fp, #-16]
	add	r1, r1, #768
	ldr	r3, [r3, r1, lsl #2]
	add	r3, r2, r3
	ldr	r2, [fp, #-12]
	eor	r3, r3, r2
	str	r3, [fp, #-12]
	ldr	r3, [fp, #-16]
	add	r3, r3, #4096
	ldr	r3, [r3, #52]
	ldr	r2, [fp, #-12]
	eor	r3, r3, r2
	str	r3, [fp, #-12]
	ldr	r3, [fp, #-12]
	lsr	r2, r3, #24
	ldr	r3, [fp, #-16]
	ldr	r2, [r3, r2, lsl #2]
	ldr	r3, [fp, #-12]
	lsr	r3, r3, #16
	and	r1, r3, #255
	ldr	r3, [fp, #-16]
	add	r1, r1, #256
	ldr	r3, [r3, r1, lsl #2]
	add	r2, r2, r3
	ldr	r3, [fp, #-12]
	lsr	r3, r3, #8
	and	r1, r3, #255
	ldr	r3, [fp, #-16]
	add	r1, r1, #512
	ldr	r3, [r3, r1, lsl #2]
	eor	r2, r2, r3
	ldr	r3, [fp, #-12]
	and	r1, r3, #255
	ldr	r3, [fp, #-16]
	add	r1, r1, #768
	ldr	r3, [r3, r1, lsl #2]
	add	r3, r2, r3
	ldr	r2, [fp, #-8]
	eor	r3, r3, r2
	str	r3, [fp, #-8]
	ldr	r3, [fp, #-16]
	add	r3, r3, #4096
	ldr	r3, [r3, #48]
	ldr	r2, [fp, #-8]
	eor	r3, r3, r2
	str	r3, [fp, #-8]
	ldr	r3, [fp, #-8]
	lsr	r2, r3, #24
	ldr	r3, [fp, #-16]
	ldr	r2, [r3, r2, lsl #2]
	ldr	r3, [fp, #-8]
	lsr	r3, r3, #16
	and	r1, r3, #255
	ldr	r3, [fp, #-16]
	add	r1, r1, #256
	ldr	r3, [r3, r1, lsl #2]
	add	r2, r2, r3
	ldr	r3, [fp, #-8]
	lsr	r3, r3, #8
	and	r1, r3, #255
	ldr	r3, [fp, #-16]
	add	r1, r1, #512
	ldr	r3, [r3, r1, lsl #2]
	eor	r2, r2, r3
	ldr	r3, [fp, #-8]
	and	r1, r3, #255
	ldr	r3, [fp, #-16]
	add	r1, r1, #768
	ldr	r3, [r3, r1, lsl #2]
	add	r3, r2, r3
	ldr	r2, [fp, #-12]
	eor	r3, r3, r2
	str	r3, [fp, #-12]
	ldr	r3, [fp, #-16]
	add	r3, r3, #4096
	ldr	r3, [r3, #44]
	ldr	r2, [fp, #-12]
	eor	r3, r3, r2
	str	r3, [fp, #-12]
	ldr	r3, [fp, #-12]
	lsr	r2, r3, #24
	ldr	r3, [fp, #-16]
	ldr	r2, [r3, r2, lsl #2]
	ldr	r3, [fp, #-12]
	lsr	r3, r3, #16
	and	r1, r3, #255
	ldr	r3, [fp, #-16]
	add	r1, r1, #256
	ldr	r3, [r3, r1, lsl #2]
	add	r2, r2, r3
	ldr	r3, [fp, #-12]
	lsr	r3, r3, #8
	and	r1, r3, #255
	ldr	r3, [fp, #-16]
	add	r1, r1, #512
	ldr	r3, [r3, r1, lsl #2]
	eor	r2, r2, r3
	ldr	r3, [fp, #-12]
	and	r1, r3, #255
	ldr	r3, [fp, #-16]
	add	r1, r1, #768
	ldr	r3, [r3, r1, lsl #2]
	add	r3, r2, r3
	ldr	r2, [fp, #-8]
	eor	r3, r3, r2
	str	r3, [fp, #-8]
	ldr	r3, [fp, #-16]
	add	r3, r3, #4096
	ldr	r3, [r3, #40]
	ldr	r2, [fp, #-8]
	eor	r3, r3, r2
	str	r3, [fp, #-8]
	ldr	r3, [fp, #-8]
	lsr	r2, r3, #24
	ldr	r3, [fp, #-16]
	ldr	r2, [r3, r2, lsl #2]
	ldr	r3, [fp, #-8]
	lsr	r3, r3, #16
	and	r1, r3, #255
	ldr	r3, [fp, #-16]
	add	r1, r1, #256
	ldr	r3, [r3, r1, lsl #2]
	add	r2, r2, r3
	ldr	r3, [fp, #-8]
	lsr	r3, r3, #8
	and	r1, r3, #255
	ldr	r3, [fp, #-16]
	add	r1, r1, #512
	ldr	r3, [r3, r1, lsl #2]
	eor	r2, r2, r3
	ldr	r3, [fp, #-8]
	and	r1, r3, #255
	ldr	r3, [fp, #-16]
	add	r1, r1, #768
	ldr	r3, [r3, r1, lsl #2]
	add	r3, r2, r3
	ldr	r2, [fp, #-12]
	eor	r3, r3, r2
	str	r3, [fp, #-12]
	ldr	r3, [fp, #-16]
	add	r3, r3, #4096
	ldr	r3, [r3, #36]
	ldr	r2, [fp, #-12]
	eor	r3, r3, r2
	str	r3, [fp, #-12]
	ldr	r3, [fp, #-12]
	lsr	r2, r3, #24
	ldr	r3, [fp, #-16]
	ldr	r2, [r3, r2, lsl #2]
	ldr	r3, [fp, #-12]
	lsr	r3, r3, #16
	and	r1, r3, #255
	ldr	r3, [fp, #-16]
	add	r1, r1, #256
	ldr	r3, [r3, r1, lsl #2]
	add	r2, r2, r3
	ldr	r3, [fp, #-12]
	lsr	r3, r3, #8
	and	r1, r3, #255
	ldr	r3, [fp, #-16]
	add	r1, r1, #512
	ldr	r3, [r3, r1, lsl #2]
	eor	r2, r2, r3
	ldr	r3, [fp, #-12]
	and	r1, r3, #255
	ldr	r3, [fp, #-16]
	add	r1, r1, #768
	ldr	r3, [r3, r1, lsl #2]
	add	r3, r2, r3
	ldr	r2, [fp, #-8]
	eor	r3, r3, r2
	str	r3, [fp, #-8]
	ldr	r3, [fp, #-16]
	add	r3, r3, #4096
	ldr	r3, [r3, #32]
	ldr	r2, [fp, #-8]
	eor	r3, r3, r2
	str	r3, [fp, #-8]
	ldr	r3, [fp, #-8]
	lsr	r2, r3, #24
	ldr	r3, [fp, #-16]
	ldr	r2, [r3, r2, lsl #2]
	ldr	r3, [fp, #-8]
	lsr	r3, r3, #16
	and	r1, r3, #255
	ldr	r3, [fp, #-16]
	add	r1, r1, #256
	ldr	r3, [r3, r1, lsl #2]
	add	r2, r2, r3
	ldr	r3, [fp, #-8]
	lsr	r3, r3, #8
	and	r1, r3, #255
	ldr	r3, [fp, #-16]
	add	r1, r1, #512
	ldr	r3, [r3, r1, lsl #2]
	eor	r2, r2, r3
	ldr	r3, [fp, #-8]
	and	r1, r3, #255
	ldr	r3, [fp, #-16]
	add	r1, r1, #768
	ldr	r3, [r3, r1, lsl #2]
	add	r3, r2, r3
	ldr	r2, [fp, #-12]
	eor	r3, r3, r2
	str	r3, [fp, #-12]
	ldr	r3, [fp, #-16]
	add	r3, r3, #4096
	ldr	r3, [r3, #28]
	ldr	r2, [fp, #-12]
	eor	r3, r3, r2
	str	r3, [fp, #-12]
	ldr	r3, [fp, #-12]
	lsr	r2, r3, #24
	ldr	r3, [fp, #-16]
	ldr	r2, [r3, r2, lsl #2]
	ldr	r3, [fp, #-12]
	lsr	r3, r3, #16
	and	r1, r3, #255
	ldr	r3, [fp, #-16]
	add	r1, r1, #256
	ldr	r3, [r3, r1, lsl #2]
	add	r2, r2, r3
	ldr	r3, [fp, #-12]
	lsr	r3, r3, #8
	and	r1, r3, #255
	ldr	r3, [fp, #-16]
	add	r1, r1, #512
	ldr	r3, [r3, r1, lsl #2]
	eor	r2, r2, r3
	ldr	r3, [fp, #-12]
	and	r1, r3, #255
	ldr	r3, [fp, #-16]
	add	r1, r1, #768
	ldr	r3, [r3, r1, lsl #2]
	add	r3, r2, r3
	ldr	r2, [fp, #-8]
	eor	r3, r3, r2
	str	r3, [fp, #-8]
	ldr	r3, [fp, #-16]
	add	r3, r3, #4096
	ldr	r3, [r3, #24]
	ldr	r2, [fp, #-8]
	eor	r3, r3, r2
	str	r3, [fp, #-8]
	ldr	r3, [fp, #-8]
	lsr	r2, r3, #24
	ldr	r3, [fp, #-16]
	ldr	r2, [r3, r2, lsl #2]
	ldr	r3, [fp, #-8]
	lsr	r3, r3, #16
	and	r1, r3, #255
	ldr	r3, [fp, #-16]
	add	r1, r1, #256
	ldr	r3, [r3, r1, lsl #2]
	add	r2, r2, r3
	ldr	r3, [fp, #-8]
	lsr	r3, r3, #8
	and	r1, r3, #255
	ldr	r3, [fp, #-16]
	add	r1, r1, #512
	ldr	r3, [r3, r1, lsl #2]
	eor	r2, r2, r3
	ldr	r3, [fp, #-8]
	and	r1, r3, #255
	ldr	r3, [fp, #-16]
	add	r1, r1, #768
	ldr	r3, [r3, r1, lsl #2]
	add	r3, r2, r3
	ldr	r2, [fp, #-12]
	eor	r3, r3, r2
	str	r3, [fp, #-12]
	ldr	r3, [fp, #-16]
	add	r3, r3, #4096
	ldr	r3, [r3, #20]
	ldr	r2, [fp, #-12]
	eor	r3, r3, r2
	str	r3, [fp, #-12]
	ldr	r3, [fp, #-12]
	lsr	r2, r3, #24
	ldr	r3, [fp, #-16]
	ldr	r2, [r3, r2, lsl #2]
	ldr	r3, [fp, #-12]
	lsr	r3, r3, #16
	and	r1, r3, #255
	ldr	r3, [fp, #-16]
	add	r1, r1, #256
	ldr	r3, [r3, r1, lsl #2]
	add	r2, r2, r3
	ldr	r3, [fp, #-12]
	lsr	r3, r3, #8
	and	r1, r3, #255
	ldr	r3, [fp, #-16]
	add	r1, r1, #512
	ldr	r3, [r3, r1, lsl #2]
	eor	r2, r2, r3
	ldr	r3, [fp, #-12]
	and	r1, r3, #255
	ldr	r3, [fp, #-16]
	add	r1, r1, #768
	ldr	r3, [r3, r1, lsl #2]
	add	r3, r2, r3
	ldr	r2, [fp, #-8]
	eor	r3, r3, r2
	str	r3, [fp, #-8]
	ldr	r3, [fp, #-16]
	add	r3, r3, #4096
	ldr	r3, [r3, #16]
	ldr	r2, [fp, #-8]
	eor	r3, r3, r2
	str	r3, [fp, #-8]
	ldr	r3, [fp, #-8]
	lsr	r2, r3, #24
	ldr	r3, [fp, #-16]
	ldr	r2, [r3, r2, lsl #2]
	ldr	r3, [fp, #-8]
	lsr	r3, r3, #16
	and	r1, r3, #255
	ldr	r3, [fp, #-16]
	add	r1, r1, #256
	ldr	r3, [r3, r1, lsl #2]
	add	r2, r2, r3
	ldr	r3, [fp, #-8]
	lsr	r3, r3, #8
	and	r1, r3, #255
	ldr	r3, [fp, #-16]
	add	r1, r1, #512
	ldr	r3, [r3, r1, lsl #2]
	eor	r2, r2, r3
	ldr	r3, [fp, #-8]
	and	r1, r3, #255
	ldr	r3, [fp, #-16]
	add	r1, r1, #768
	ldr	r3, [r3, r1, lsl #2]
	add	r3, r2, r3
	ldr	r2, [fp, #-12]
	eor	r3, r3, r2
	str	r3, [fp, #-12]
	ldr	r3, [fp, #-16]
	add	r3, r3, #4096
	ldr	r3, [r3, #12]
	ldr	r2, [fp, #-12]
	eor	r3, r3, r2
	str	r3, [fp, #-12]
	ldr	r3, [fp, #-12]
	lsr	r2, r3, #24
	ldr	r3, [fp, #-16]
	ldr	r2, [r3, r2, lsl #2]
	ldr	r3, [fp, #-12]
	lsr	r3, r3, #16
	and	r1, r3, #255
	ldr	r3, [fp, #-16]
	add	r1, r1, #256
	ldr	r3, [r3, r1, lsl #2]
	add	r2, r2, r3
	ldr	r3, [fp, #-12]
	lsr	r3, r3, #8
	and	r1, r3, #255
	ldr	r3, [fp, #-16]
	add	r1, r1, #512
	ldr	r3, [r3, r1, lsl #2]
	eor	r2, r2, r3
	ldr	r3, [fp, #-12]
	and	r1, r3, #255
	ldr	r3, [fp, #-16]
	add	r1, r1, #768
	ldr	r3, [r3, r1, lsl #2]
	add	r3, r2, r3
	ldr	r2, [fp, #-8]
	eor	r3, r3, r2
	str	r3, [fp, #-8]
	ldr	r3, [fp, #-16]
	add	r3, r3, #4096
	ldr	r3, [r3, #8]
	ldr	r2, [fp, #-8]
	eor	r3, r3, r2
	str	r3, [fp, #-8]
	ldr	r3, [fp, #-8]
	lsr	r2, r3, #24
	ldr	r3, [fp, #-16]
	ldr	r2, [r3, r2, lsl #2]
	ldr	r3, [fp, #-8]
	lsr	r3, r3, #16
	and	r1, r3, #255
	ldr	r3, [fp, #-16]
	add	r1, r1, #256
	ldr	r3, [r3, r1, lsl #2]
	add	r2, r2, r3
	ldr	r3, [fp, #-8]
	lsr	r3, r3, #8
	and	r1, r3, #255
	ldr	r3, [fp, #-16]
	add	r1, r1, #512
	ldr	r3, [r3, r1, lsl #2]
	eor	r2, r2, r3
	ldr	r3, [fp, #-8]
	and	r1, r3, #255
	ldr	r3, [fp, #-16]
	add	r1, r1, #768
	ldr	r3, [r3, r1, lsl #2]
	add	r3, r2, r3
	ldr	r2, [fp, #-12]
	eor	r3, r3, r2
	str	r3, [fp, #-12]
	ldr	r3, [fp, #-16]
	add	r3, r3, #4096
	ldr	r3, [r3, #4]
	ldr	r2, [fp, #-12]
	eor	r3, r3, r2
	str	r3, [fp, #-12]
	ldr	r3, [fp, #-16]
	add	r3, r3, #4096
	ldr	r3, [r3]
	ldr	r2, [fp, #-8]
	eor	r3, r3, r2
	str	r3, [fp, #-8]
	ldr	r3, [fp, #-20]
	ldr	r2, [fp, #-8]
	str	r2, [r3]
	ldr	r3, [fp, #-24]
	ldr	r2, [fp, #-12]
	str	r2, [r3]
	nop
	add	sp, fp, #0
	@ sp needed
	ldr	fp, [sp], #4
	bx	lr
	.size	decround, .-decround
	.section	.rodata
	.align	2
.LC0:
	.ascii	"blowfish.c\000"
	.align	2
.LC1:
	.ascii	"!((length) % (8))\000"
	.align	2
.LC2:
	.word	__stack_chk_guard
	.text
	.align	2
	.global	nettle_blowfish_encrypt
	.syntax unified
	.arm
	.fpu softvfp
	.type	nettle_blowfish_encrypt, %function
nettle_blowfish_encrypt:
	@ args = 0, pretend = 0, frame = 32
	@ frame_needed = 1, uses_anonymous_args = 0
	push	{fp, lr}
	add	fp, sp, #4
	sub	sp, sp, #32
	str	r0, [fp, #-24]
	str	r1, [fp, #-28]
	str	r2, [fp, #-32]
	str	r3, [fp, #-36]
	ldr	r3, .L8
	ldr	r3, [r3]
	str	r3, [fp, #-8]
	mov	r3,#0
	ldr	r3, [fp, #-28]
	and	r3, r3, #7
	cmp	r3, #0
	beq	.L5
	ldr	r3, .L8+4
	ldr	r2, .L8+8
	ldr	r1, .L8+12
	ldr	r0, .L8+16
	bl	__assert_fail
.L6:
	ldr	r3, [fp, #-36]
	ldrb	r3, [r3]	@ zero_extendqisi2
	lsl	r2, r3, #24
	ldr	r3, [fp, #-36]
	add	r3, r3, #1
	ldrb	r3, [r3]	@ zero_extendqisi2
	lsl	r3, r3, #16
	orr	r2, r2, r3
	ldr	r3, [fp, #-36]
	add	r3, r3, #2
	ldrb	r3, [r3]	@ zero_extendqisi2
	lsl	r3, r3, #8
	orr	r3, r2, r3
	ldr	r2, [fp, #-36]
	add	r2, r2, #3
	ldrb	r2, [r2]	@ zero_extendqisi2
	orr	r3, r3, r2
	str	r3, [fp, #-16]
	ldr	r3, [fp, #-36]
	add	r3, r3, #4
	ldrb	r3, [r3]	@ zero_extendqisi2
	lsl	r2, r3, #24
	ldr	r3, [fp, #-36]
	add	r3, r3, #5
	ldrb	r3, [r3]	@ zero_extendqisi2
	lsl	r3, r3, #16
	orr	r2, r2, r3
	ldr	r3, [fp, #-36]
	add	r3, r3, #6
	ldrb	r3, [r3]	@ zero_extendqisi2
	lsl	r3, r3, #8
	orr	r3, r2, r3
	ldr	r2, [fp, #-36]
	add	r2, r2, #7
	ldrb	r2, [r2]	@ zero_extendqisi2
	orr	r3, r3, r2
	str	r3, [fp, #-12]
	sub	r2, fp, #12
	sub	r3, fp, #16
	mov	r1, r3
	ldr	r0, [fp, #-24]
	bl	_nettle_blowfish_encround
	ldr	r3, [fp, #-16]
	lsr	r3, r3, #24
	and	r2, r3, #255
	ldr	r3, [fp, #-32]
	strb	r2, [r3]
	ldr	r3, [fp, #-16]
	lsr	r2, r3, #16
	ldr	r3, [fp, #-32]
	add	r3, r3, #1
	and	r2, r2, #255
	strb	r2, [r3]
	ldr	r3, [fp, #-16]
	lsr	r2, r3, #8
	ldr	r3, [fp, #-32]
	add	r3, r3, #2
	and	r2, r2, #255
	strb	r2, [r3]
	ldr	r2, [fp, #-16]
	ldr	r3, [fp, #-32]
	add	r3, r3, #3
	and	r2, r2, #255
	strb	r2, [r3]
	ldr	r3, [fp, #-12]
	lsr	r2, r3, #24
	ldr	r3, [fp, #-32]
	add	r3, r3, #4
	and	r2, r2, #255
	strb	r2, [r3]
	ldr	r3, [fp, #-12]
	lsr	r2, r3, #16
	ldr	r3, [fp, #-32]
	add	r3, r3, #5
	and	r2, r2, #255
	strb	r2, [r3]
	ldr	r3, [fp, #-12]
	lsr	r2, r3, #8
	ldr	r3, [fp, #-32]
	add	r3, r3, #6
	and	r2, r2, #255
	strb	r2, [r3]
	ldr	r2, [fp, #-12]
	ldr	r3, [fp, #-32]
	add	r3, r3, #7
	and	r2, r2, #255
	strb	r2, [r3]
	ldr	r3, [fp, #-28]
	sub	r3, r3, #8
	str	r3, [fp, #-28]
	ldr	r3, [fp, #-32]
	add	r3, r3, #8
	str	r3, [fp, #-32]
	ldr	r3, [fp, #-36]
	add	r3, r3, #8
	str	r3, [fp, #-36]
.L5:
	ldr	r3, [fp, #-28]
	cmp	r3, #0
	bne	.L6
	nop
	ldr	r3, .L8
	ldr	r2, [r3]
	ldr	r3, [fp, #-8]
	eors	r2, r3, r2
	mov	r3, #0
	beq	.L7
	bl	__stack_chk_fail
.L7:
	sub	sp, fp, #4
	@ sp needed
	pop	{fp, pc}
.L9:
	.align	2
.L8:
	.word	.LC2
	.word	__PRETTY_FUNCTION__.4428
	.word	337
	.word	.LC0
	.word	.LC1
	.size	nettle_blowfish_encrypt, .-nettle_blowfish_encrypt
	.section	.rodata
	.align	2
.LC3:
	.word	__stack_chk_guard
	.text
	.align	2
	.global	nettle_blowfish_decrypt
	.syntax unified
	.arm
	.fpu softvfp
	.type	nettle_blowfish_decrypt, %function
nettle_blowfish_decrypt:
	@ args = 0, pretend = 0, frame = 32
	@ frame_needed = 1, uses_anonymous_args = 0
	push	{fp, lr}
	add	fp, sp, #4
	sub	sp, sp, #32
	str	r0, [fp, #-24]
	str	r1, [fp, #-28]
	str	r2, [fp, #-32]
	str	r3, [fp, #-36]
	ldr	r3, .L15
	ldr	r3, [r3]
	str	r3, [fp, #-8]
	mov	r3,#0
	ldr	r3, [fp, #-28]
	and	r3, r3, #7
	cmp	r3, #0
	beq	.L12
	ldr	r3, .L15+4
	ldr	r2, .L15+8
	ldr	r1, .L15+12
	ldr	r0, .L15+16
	bl	__assert_fail
.L13:
	ldr	r3, [fp, #-36]
	ldrb	r3, [r3]	@ zero_extendqisi2
	lsl	r2, r3, #24
	ldr	r3, [fp, #-36]
	add	r3, r3, #1
	ldrb	r3, [r3]	@ zero_extendqisi2
	lsl	r3, r3, #16
	orr	r2, r2, r3
	ldr	r3, [fp, #-36]
	add	r3, r3, #2
	ldrb	r3, [r3]	@ zero_extendqisi2
	lsl	r3, r3, #8
	orr	r3, r2, r3
	ldr	r2, [fp, #-36]
	add	r2, r2, #3
	ldrb	r2, [r2]	@ zero_extendqisi2
	orr	r3, r3, r2
	str	r3, [fp, #-16]
	ldr	r3, [fp, #-36]
	add	r3, r3, #4
	ldrb	r3, [r3]	@ zero_extendqisi2
	lsl	r2, r3, #24
	ldr	r3, [fp, #-36]
	add	r3, r3, #5
	ldrb	r3, [r3]	@ zero_extendqisi2
	lsl	r3, r3, #16
	orr	r2, r2, r3
	ldr	r3, [fp, #-36]
	add	r3, r3, #6
	ldrb	r3, [r3]	@ zero_extendqisi2
	lsl	r3, r3, #8
	orr	r3, r2, r3
	ldr	r2, [fp, #-36]
	add	r2, r2, #7
	ldrb	r2, [r2]	@ zero_extendqisi2
	orr	r3, r3, r2
	str	r3, [fp, #-12]
	sub	r2, fp, #12
	sub	r3, fp, #16
	mov	r1, r3
	ldr	r0, [fp, #-24]
	bl	decround
	ldr	r3, [fp, #-16]
	lsr	r3, r3, #24
	and	r2, r3, #255
	ldr	r3, [fp, #-32]
	strb	r2, [r3]
	ldr	r3, [fp, #-16]
	lsr	r2, r3, #16
	ldr	r3, [fp, #-32]
	add	r3, r3, #1
	and	r2, r2, #255
	strb	r2, [r3]
	ldr	r3, [fp, #-16]
	lsr	r2, r3, #8
	ldr	r3, [fp, #-32]
	add	r3, r3, #2
	and	r2, r2, #255
	strb	r2, [r3]
	ldr	r2, [fp, #-16]
	ldr	r3, [fp, #-32]
	add	r3, r3, #3
	and	r2, r2, #255
	strb	r2, [r3]
	ldr	r3, [fp, #-12]
	lsr	r2, r3, #24
	ldr	r3, [fp, #-32]
	add	r3, r3, #4
	and	r2, r2, #255
	strb	r2, [r3]
	ldr	r3, [fp, #-12]
	lsr	r2, r3, #16
	ldr	r3, [fp, #-32]
	add	r3, r3, #5
	and	r2, r2, #255
	strb	r2, [r3]
	ldr	r3, [fp, #-12]
	lsr	r2, r3, #8
	ldr	r3, [fp, #-32]
	add	r3, r3, #6
	and	r2, r2, #255
	strb	r2, [r3]
	ldr	r2, [fp, #-12]
	ldr	r3, [fp, #-32]
	add	r3, r3, #7
	and	r2, r2, #255
	strb	r2, [r3]
	ldr	r3, [fp, #-28]
	sub	r3, r3, #8
	str	r3, [fp, #-28]
	ldr	r3, [fp, #-32]
	add	r3, r3, #8
	str	r3, [fp, #-32]
	ldr	r3, [fp, #-36]
	add	r3, r3, #8
	str	r3, [fp, #-36]
.L12:
	ldr	r3, [fp, #-28]
	cmp	r3, #0
	bne	.L13
	nop
	ldr	r3, .L15
	ldr	r2, [r3]
	ldr	r3, [fp, #-8]
	eors	r2, r3, r2
	mov	r3, #0
	beq	.L14
	bl	__stack_chk_fail
.L14:
	sub	sp, fp, #4
	@ sp needed
	pop	{fp, pc}
.L16:
	.align	2
.L15:
	.word	.LC3
	.word	__PRETTY_FUNCTION__.4440
	.word	359
	.word	.LC0
	.word	.LC1
	.size	nettle_blowfish_decrypt, .-nettle_blowfish_decrypt
	.global	__aeabi_uidivmod
	.section	.rodata
	.align	2
.LC4:
	.word	__stack_chk_guard
	.text
	.align	2
	.global	nettle_blowfish_set_key
	.syntax unified
	.arm
	.fpu softvfp
	.type	nettle_blowfish_set_key, %function
nettle_blowfish_set_key:
	@ args = 0, pretend = 0, frame = 40
	@ frame_needed = 1, uses_anonymous_args = 0
	push	{r4, fp, lr}
	add	fp, sp, #8
	sub	sp, sp, #44
	str	r0, [fp, #-40]
	str	r1, [fp, #-44]
	str	r2, [fp, #-48]
	ldr	r3, .L35
	ldr	r3, [r3]
	str	r3, [fp, #-16]
	mov	r3,#0
	ldr	r3, [fp, #-40]
	ldr	r2, .L35+4
	mov	r0, r3
	mov	r1, r2
	ldr	r3, .L35+8
	mov	r2, r3
	bl	memcpy
	mov	r3, #0
	str	r3, [fp, #-24]
	ldr	r3, [fp, #-24]
	str	r3, [fp, #-28]
	b	.L18
.L19:
	ldr	r3, [fp, #-24]
	ldr	r2, [fp, #-48]
	add	r3, r2, r3
	ldrb	r3, [r3]	@ zero_extendqisi2
	lsl	r4, r3, #24
	ldr	r3, [fp, #-24]
	add	r3, r3, #1
	ldr	r1, [fp, #-44]
	mov	r0, r3
	bl	__aeabi_uidivmod
	mov	r3, r1
	mov	r2, r3
	ldr	r3, [fp, #-48]
	add	r3, r3, r2
	ldrb	r3, [r3]	@ zero_extendqisi2
	lsl	r3, r3, #16
	orr	r4, r4, r3
	ldr	r3, [fp, #-24]
	add	r3, r3, #2
	ldr	r1, [fp, #-44]
	mov	r0, r3
	bl	__aeabi_uidivmod
	mov	r3, r1
	mov	r2, r3
	ldr	r3, [fp, #-48]
	add	r3, r3, r2
	ldrb	r3, [r3]	@ zero_extendqisi2
	lsl	r3, r3, #8
	orr	r4, r4, r3
	ldr	r3, [fp, #-24]
	add	r3, r3, #3
	ldr	r1, [fp, #-44]
	mov	r0, r3
	bl	__aeabi_uidivmod
	mov	r3, r1
	mov	r2, r3
	ldr	r3, [fp, #-48]
	add	r3, r3, r2
	ldrb	r3, [r3]	@ zero_extendqisi2
	orr	r3, r4, r3
	str	r3, [fp, #-20]
	ldr	r3, [fp, #-40]
	ldr	r2, [fp, #-28]
	add	r2, r2, #1024
	ldr	r2, [r3, r2, lsl #2]
	ldr	r3, [fp, #-20]
	eor	r1, r2, r3
	ldr	r3, [fp, #-40]
	ldr	r2, [fp, #-28]
	add	r2, r2, #1024
	str	r1, [r3, r2, lsl #2]
	ldr	r3, [fp, #-24]
	add	r3, r3, #4
	ldr	r1, [fp, #-44]
	mov	r0, r3
	bl	__aeabi_uidivmod
	mov	r3, r1
	str	r3, [fp, #-24]
	ldr	r3, [fp, #-28]
	add	r3, r3, #1
	str	r3, [fp, #-28]
.L18:
	ldr	r3, [fp, #-28]
	cmp	r3, #17
	ble	.L19
	mov	r3, #0
	str	r3, [fp, #-32]
	ldr	r3, [fp, #-32]
	str	r3, [fp, #-36]
	mov	r3, #0
	str	r3, [fp, #-28]
	b	.L20
.L21:
	sub	r2, fp, #32
	sub	r3, fp, #36
	mov	r1, r3
	ldr	r0, [fp, #-40]
	bl	_nettle_blowfish_encround
	ldr	r1, [fp, #-36]
	ldr	r3, [fp, #-40]
	ldr	r2, [fp, #-28]
	add	r2, r2, #1024
	str	r1, [r3, r2, lsl #2]
	ldr	r3, [fp, #-28]
	add	r2, r3, #1
	ldr	r1, [fp, #-32]
	ldr	r3, [fp, #-40]
	add	r2, r2, #1024
	str	r1, [r3, r2, lsl #2]
	ldr	r3, [fp, #-28]
	add	r3, r3, #2
	str	r3, [fp, #-28]
.L20:
	ldr	r3, [fp, #-28]
	cmp	r3, #17
	ble	.L21
	mov	r3, #0
	str	r3, [fp, #-24]
	b	.L22
.L25:
	mov	r3, #0
	str	r3, [fp, #-28]
	b	.L23
.L24:
	sub	r2, fp, #32
	sub	r3, fp, #36
	mov	r1, r3
	ldr	r0, [fp, #-40]
	bl	_nettle_blowfish_encround
	ldr	r1, [fp, #-36]
	ldr	r3, [fp, #-40]
	ldr	r2, [fp, #-24]
	lsl	r0, r2, #8
	ldr	r2, [fp, #-28]
	add	r2, r0, r2
	str	r1, [r3, r2, lsl #2]
	ldr	r3, [fp, #-28]
	add	r2, r3, #1
	ldr	r1, [fp, #-32]
	ldr	r3, [fp, #-40]
	ldr	r0, [fp, #-24]
	lsl	r0, r0, #8
	add	r2, r0, r2
	str	r1, [r3, r2, lsl #2]
	ldr	r3, [fp, #-28]
	add	r3, r3, #2
	str	r3, [fp, #-28]
.L23:
	ldr	r3, [fp, #-28]
	cmp	r3, #255
	ble	.L24
	ldr	r3, [fp, #-24]
	add	r3, r3, #1
	str	r3, [fp, #-24]
.L22:
	ldr	r3, [fp, #-24]
	cmp	r3, #3
	ble	.L25
	mov	r3, #0
	str	r3, [fp, #-28]
	b	.L26
.L32:
	ldr	r3, [fp, #-28]
	add	r3, r3, #1
	str	r3, [fp, #-24]
	b	.L27
.L31:
	ldr	r3, [fp, #-40]
	ldr	r2, [fp, #-28]
	ldr	r2, [r3, r2, lsl #2]
	ldr	r3, [fp, #-40]
	ldr	r1, [fp, #-24]
	ldr	r3, [r3, r1, lsl #2]
	cmp	r2, r3
	beq	.L28
	ldr	r3, [fp, #-40]
	ldr	r2, [fp, #-28]
	add	r2, r2, #256
	ldr	r2, [r3, r2, lsl #2]
	ldr	r3, [fp, #-40]
	ldr	r1, [fp, #-24]
	add	r1, r1, #256
	ldr	r3, [r3, r1, lsl #2]
	cmp	r2, r3
	beq	.L28
	ldr	r3, [fp, #-40]
	ldr	r2, [fp, #-28]
	add	r2, r2, #512
	ldr	r2, [r3, r2, lsl #2]
	ldr	r3, [fp, #-40]
	ldr	r1, [fp, #-24]
	add	r1, r1, #512
	ldr	r3, [r3, r1, lsl #2]
	cmp	r2, r3
	beq	.L28
	ldr	r3, [fp, #-40]
	ldr	r2, [fp, #-28]
	add	r2, r2, #768
	ldr	r2, [r3, r2, lsl #2]
	ldr	r3, [fp, #-40]
	ldr	r1, [fp, #-24]
	add	r1, r1, #768
	ldr	r3, [r3, r1, lsl #2]
	cmp	r2, r3
	bne	.L29
.L28:
	mov	r3, #0
	b	.L33
.L29:
	ldr	r3, [fp, #-24]
	add	r3, r3, #1
	str	r3, [fp, #-24]
.L27:
	ldr	r3, [fp, #-24]
	cmp	r3, #255
	ble	.L31
	ldr	r3, [fp, #-28]
	add	r3, r3, #1
	str	r3, [fp, #-28]
.L26:
	ldr	r3, [fp, #-28]
	cmp	r3, #254
	ble	.L32
	mov	r3, #1
.L33:
	ldr	r2, .L35
	ldr	r1, [r2]
	ldr	r2, [fp, #-16]
	eors	r1, r2, r1
	mov	r2, #0
	beq	.L34
	bl	__stack_chk_fail
.L34:
	mov	r0, r3
	sub	sp, fp, #8
	@ sp needed
	pop	{r4, fp, pc}
.L36:
	.align	2
.L35:
	.word	.LC4
	.word	_nettle_blowfish_initial_ctx
	.word	4168
	.size	nettle_blowfish_set_key, .-nettle_blowfish_set_key
	.align	2
	.global	nettle_blowfish128_set_key
	.syntax unified
	.arm
	.fpu softvfp
	.type	nettle_blowfish128_set_key, %function
nettle_blowfish128_set_key:
	@ args = 0, pretend = 0, frame = 8
	@ frame_needed = 1, uses_anonymous_args = 0
	push	{fp, lr}
	add	fp, sp, #4
	sub	sp, sp, #8
	str	r0, [fp, #-8]
	str	r1, [fp, #-12]
	ldr	r2, [fp, #-12]
	mov	r1, #16
	ldr	r0, [fp, #-8]
	bl	nettle_blowfish_set_key
	mov	r3, r0
	mov	r0, r3
	sub	sp, fp, #4
	@ sp needed
	pop	{fp, pc}
	.size	nettle_blowfish128_set_key, .-nettle_blowfish128_set_key
	.section	.rodata
	.align	2
	.type	__PRETTY_FUNCTION__.4428, %object
	.size	__PRETTY_FUNCTION__.4428, 24
__PRETTY_FUNCTION__.4428:
	.ascii	"nettle_blowfish_encrypt\000"
	.align	2
	.type	__PRETTY_FUNCTION__.4440, %object
	.size	__PRETTY_FUNCTION__.4440, 24
__PRETTY_FUNCTION__.4440:
	.ascii	"nettle_blowfish_decrypt\000"
	.ident	"GCC: (Ubuntu 9.3.0-17ubuntu1~20.04) 9.3.0"
	.section	.note.GNU-stack,"",%progbits
